

Microchip MPLAB XC8 Assembler V2.41 build 20230208172133 
                                                                                               Sun Sep 03 23:38:17 2023

Microchip MPLAB XC8 C Compiler v2.41 (Free license) build 20230208172133 Og1 
     1                           	processor	18F46K20
     2                           	fnconf	rparam,??,?,0
     3                           	pagewidth 120
     4                           	opt	flic
     5                           	psect	idataCOMRAM,global,class=CODE,delta=1,noexec
     6                           	psect	idataBANK0,global,class=CODE,delta=1,noexec
     7                           	psect	mediumconst,global,reloc=2,class=MEDIUMCONST,delta=1,noexec
     8                           	psect	cinit,global,reloc=2,class=CODE,delta=1
     9                           	psect	bssCOMRAM,global,class=COMRAM,space=1,delta=1,lowdata,noexec
    10                           	psect	dataCOMRAM,global,class=COMRAM,space=1,delta=1,lowdata,noexec
    11                           	psect	bssBANK0,global,class=BANK0,space=1,delta=1,lowdata,noexec
    12                           	psect	dataBANK0,global,class=BANK0,space=1,delta=1,lowdata,noexec
    13                           	psect	cstackCOMRAM,global,class=COMRAM,space=1,delta=1,lowdata,noexec
    14                           	psect	text0,global,reloc=2,class=CODE,delta=1
    15                           	psect	text1,global,reloc=2,class=CODE,delta=1
    16                           	psect	text2,global,reloc=2,class=CODE,delta=1,group=2
    17                           	psect	text3,global,reloc=2,class=CODE,delta=1
    18                           	psect	text4,global,reloc=2,class=CODE,delta=1
    19                           	psect	text5,global,reloc=2,class=CODE,delta=1
    20                           	psect	text6,global,reloc=2,class=CODE,delta=1
    21                           	psect	text7,global,reloc=2,class=CODE,delta=1
    22                           	psect	text8,global,reloc=2,class=CODE,delta=1
    23                           	psect	text9,global,reloc=2,class=CODE,delta=1
    24                           	psect	text10,global,reloc=2,class=CODE,delta=1
    25                           	psect	text11,global,reloc=2,class=CODE,delta=1
    26                           	psect	text12,global,reloc=2,class=CODE,delta=1
    27                           	psect	text13,global,reloc=2,class=CODE,delta=1
    28                           	psect	text14,global,reloc=2,class=CODE,delta=1
    29                           	psect	text15,global,reloc=2,class=CODE,delta=1
    30                           	psect	text16,global,reloc=2,class=CODE,delta=1
    31                           	psect	text17,global,reloc=2,class=CODE,delta=1
    32                           	psect	text18,global,reloc=2,class=CODE,delta=1
    33                           	psect	text19,global,reloc=2,class=CODE,delta=1
    34                           	psect	text20,global,reloc=2,class=CODE,delta=1
    35                           	psect	text21,global,reloc=2,class=CODE,delta=1
    36                           	psect	text22,global,reloc=2,class=CODE,delta=1
    37                           	psect	text23,global,reloc=2,class=CODE,delta=1
    38                           	psect	text24,global,reloc=2,class=CODE,delta=1
    39                           	psect	text25,global,reloc=2,class=CODE,delta=1
    40                           	psect	text26,global,reloc=2,class=CODE,delta=1
    41                           	psect	text27,global,reloc=2,class=CODE,delta=1
    42                           	psect	text28,global,reloc=2,class=CODE,delta=1
    43                           	psect	text29,global,reloc=2,class=CODE,delta=1
    44                           	psect	text30,global,reloc=2,class=CODE,delta=1
    45                           	psect	text31,global,reloc=2,class=CODE,delta=1
    46                           	psect	text32,global,reloc=2,class=CODE,delta=1
    47                           	psect	text33,global,reloc=2,class=CODE,delta=1
    48                           	psect	text34,global,reloc=2,class=CODE,delta=1
    49                           	psect	text35,global,reloc=2,class=CODE,delta=1
    50                           	psect	text36,global,reloc=2,class=CODE,delta=1
    51                           	psect	text37,global,reloc=2,class=CODE,delta=1
    52                           	psect	text38,global,reloc=2,class=CODE,delta=1
    53                           	psect	intsave_regs,global,class=BIGRAM,space=1,delta=1,noexec
    54                           	psect	rparam,global,class=COMRAM,space=1,delta=1,noexec
    55   000000                     
    56                           ; Generated 09/02/2023 GMT
    57                           ; 
    58                           ; Copyright © 2023, Microchip Technology Inc. and its subsidiaries ("Microchip")
    59                           ; All rights reserved.
    60                           ; 
    61                           ; This software is developed by Microchip Technology Inc. and its subsidiaries ("Microch
      +                          ip").
    62                           ; 
    63                           ; Redistribution and use in source and binary forms, with or without modification, are
    64                           ; permitted provided that the following conditions are met:
    65                           ; 
    66                           ;     1. Redistributions of source code must retain the above copyright notice, this lis
      +                          t of
    67                           ;        conditions and the following disclaimer.
    68                           ; 
    69                           ;     2. Redistributions in binary form must reproduce the above copyright notice, this 
      +                          list
    70                           ;        of conditions and the following disclaimer in the documentation and/or other
    71                           ;        materials provided with the distribution. Publication is not required when
    72                           ;        this file is used in an embedded application.
    73                           ; 
    74                           ;     3. Microchip's name may not be used to endorse or promote products derived from th
      +                          is
    75                           ;        software without specific prior written permission.
    76                           ; 
    77                           ; THIS SOFTWARE IS PROVIDED BY MICROCHIP "AS IS" AND ANY EXPRESS OR IMPLIED WARRANTIES,
    78                           ; INCLUDING, BUT NOT LIMITED TO, THE IMPLIED WARRANTIES OF MERCHANTABILITY AND FITNESS F
      +                          OR
    79                           ; PURPOSE ARE DISCLAIMED.  IN NO EVENT SHALL MICROCHIP BE LIABLE FOR ANY DIRECT, INDIREC
      +                          T,
    80                           ; INCIDENTAL, SPECIAL, EXEMPLARY, OR CONSEQUENTIAL DAMAGES (INCLUDING BUT NOT LIMITED TO
    81                           ; PROCUREMENT OF SUBSTITUTE GOODS OR SERVICES; LOSS OF USE, DATA OR PROFITS; OR BUSINESS
    82                           ; INTERRUPTION) HOWSOEVER CAUSED AND ON ANY THEORY OF LIABILITY, WHETHER IN CONTRACT, ST
      +                          RICT
    83                           ; LIABILITY, OR TORT (INCLUDING NEGLIGENCE OR OTHERWISE) ARISING IN ANY WAY OUT OF THE U
      +                          SE OF
    84                           ; THIS SOFTWARE, EVEN IF ADVISED OF THE POSSIBILITY OF SUCH DAMAGE.
    85                           ; 
    86                           ; 
    87                           ; Code-generator required, PIC18F46K20 Definitions
    88                           ; 
    89                           ; SFR Addresses
    90   000000                     
    91                           	psect	idataCOMRAM
    92   00E13D                     __pidataCOMRAM:
    93                           	callstack 0
    94                           
    95                           ;initializer for _wrong_attempts_set_pass
    96   00E13D  30                 	db	48
    97                           
    98                           ;initializer for _wrong_attempts
    99   00E13E  30                 	db	48
   100                           
   101                           ;initializer for _lcd
   102   00E13F  03                 	db	3
   103   00E140  0B                 	db	11
   104   00E141  13                 	db	19
   105   00E142  1B                 	db	27
   106   00E143  23                 	db	35
   107   00E144  2B                 	db	43
   108                           
   109                           ;initializer for _dc_motor
   110   00E145  33                 	db	51
   111   00E146  3B                 	db	59
   112                           
   113                           ;initializer for _buzzer
   114   00E147  29                 	db	41
   115                           
   116                           ;initializer for _red_led
   117   00E148  31                 	db	49
   118                           
   119                           ;initializer for _green_led
   120   00E149  39                 	db	57
   121                           
   122                           	psect	idataBANK0
   123   00E268                     __pidataBANK0:
   124                           	callstack 0
   125                           
   126                           ;initializer for set_password@F3511
   127   00E268  FF                 	db	255
   128   00E269  FF                 	db	255
   129   00E26A  FF                 	db	255
   130   00E26B  FF                 	db	255
   131   00E26C  FF                 	db	255
   132   00E26D  FF                 	db	255
   133   00E26E  FF                 	db	255
   134   00E26F  FF                 	db	255
   135   00E270  FF                 	db	255
   136   00E271  FF                 	db	255
   137                           
   138                           ;initializer for set_password@F3509
   139   00E272  FF                 	db	255
   140   00E273  FF                 	db	255
   141   00E274  FF                 	db	255
   142   00E275  FF                 	db	255
   143   00E276  FF                 	db	255
   144   00E277  FF                 	db	255
   145   00E278  FF                 	db	255
   146   00E279  FF                 	db	255
   147   00E27A  FF                 	db	255
   148   00E27B  FF                 	db	255
   149                           
   150                           ;initializer for _TRIS_Registers
   151   00E27C  92                 	db	146
   152   00E27D  0F                 	db	15
   153   00E27E  93                 	db	147
   154   00E27F  0F                 	db	15
   155   00E280  94                 	db	148
   156   00E281  0F                 	db	15
   157   00E282  95                 	db	149
   158   00E283  0F                 	db	15
   159   00E284  96                 	db	150
   160   00E285  0F                 	db	15
   161                           
   162                           ;initializer for _LAT_Registers
   163   00E286  89                 	db	137
   164   00E287  0F                 	db	15
   165   00E288  8A                 	db	138
   166   00E289  0F                 	db	15
   167   00E28A  8B                 	db	139
   168   00E28B  0F                 	db	15
   169   00E28C  8C                 	db	140
   170   00E28D  0F                 	db	15
   171   00E28E  8D                 	db	141
   172   00E28F  0F                 	db	15
   173                           
   174                           ;initializer for _PORT_Registers
   175   00E290  80                 	db	128
   176   00E291  0F                 	db	15
   177   00E292  81                 	db	129
   178   00E293  0F                 	db	15
   179   00E294  82                 	db	130
   180   00E295  0F                 	db	15
   181   00E296  83                 	db	131
   182   00E297  0F                 	db	15
   183   00E298  84                 	db	132
   184   00E299  0F                 	db	15
   185                           
   186                           ;initializer for _Password
   187   00E29A  FF                 	db	255
   188   00E29B  FF                 	db	255
   189   00E29C  FF                 	db	255
   190   00E29D  FF                 	db	255
   191   00E29E  FF                 	db	255
   192   00E29F  FF                 	db	255
   193   00E2A0  FF                 	db	255
   194   00E2A1  FF                 	db	255
   195   00E2A2  FF                 	db	255
   196   00E2A3  FF                 	db	255
   197                           
   198                           ;initializer for _keypad
   199   00E2A4  02                 	db	2
   200   00E2A5  0A                 	db	10
   201   00E2A6  12                 	db	18
   202   00E2A7  1A                 	db	26
   203   00E2A8  A2                 	db	162
   204   00E2A9  AA                 	db	170
   205   00E2AA  B2                 	db	178
   206   00E2AB  BA                 	db	186
   207                           
   208                           	psect	mediumconst
   209   00FE16                     __pmediumconst:
   210                           	callstack 0
   211   00FE16  00                 	db	0
   212   00FE17                     _keypad_buttons:
   213                           	callstack 0
   214   00FE17  37                 	db	55
   215   00FE18  38                 	db	56
   216   00FE19  39                 	db	57
   217   00FE1A  2F                 	db	47
   218   00FE1B  34                 	db	52
   219   00FE1C  35                 	db	53
   220   00FE1D  36                 	db	54
   221   00FE1E  2A                 	db	42
   222   00FE1F  31                 	db	49
   223   00FE20  32                 	db	50
   224   00FE21  33                 	db	51
   225   00FE22  2D                 	db	45
   226   00FE23  23                 	db	35
   227   00FE24  30                 	db	48
   228   00FE25  3D                 	db	61
   229   00FE26  2B                 	db	43
   230   00FE27                     __end_of_keypad_buttons:
   231                           	callstack 0
   232   000000                     _EECON2	set	4007
   233   000000                     _INTCON	set	4082
   234   000000                     _PORTA	set	3968
   235   000000                     _LATA	set	3977
   236   000000                     _PORTE	set	3972
   237   000000                     _PORTD	set	3971
   238   000000                     _PORTC	set	3970
   239   000000                     _PORTB	set	3969
   240   000000                     _TRISA	set	3986
   241   000000                     _LATE	set	3981
   242   000000                     _LATD	set	3980
   243   000000                     _LATC	set	3979
   244   000000                     _LATB	set	3978
   245   000000                     _EECON1bits	set	4006
   246   000000                     _EEDATA	set	4008
   247   000000                     _EEADR	set	4009
   248   000000                     _EEADRH	set	4010
   249   000000                     _INTCONbits	set	4082
   250   000000                     _TRISE	set	3990
   251   000000                     _TRISD	set	3989
   252   000000                     _TRISC	set	3988
   253   000000                     _TRISB	set	3987
   254   00FE27                     STR_5:
   255   00FE27  45                 	db	69	;'E'
   256   00FE28  6E                 	db	110	;'n'
   257   00FE29  74                 	db	116	;'t'
   258   00FE2A  65                 	db	101	;'e'
   259   00FE2B  72                 	db	114	;'r'
   260   00FE2C  20                 	db	32
   261   00FE2D  59                 	db	89	;'Y'
   262   00FE2E  6F                 	db	111	;'o'
   263   00FE2F  75                 	db	117	;'u'
   264   00FE30  72                 	db	114	;'r'
   265   00FE31  20                 	db	32
   266   00FE32  50                 	db	80	;'P'
   267   00FE33  61                 	db	97	;'a'
   268   00FE34  73                 	db	115	;'s'
   269   00FE35  73                 	db	115	;'s'
   270   00FE36  77                 	db	119	;'w'
   271   00FE37  6F                 	db	111	;'o'
   272   00FE38  72                 	db	114	;'r'
   273   00FE39  64                 	db	100	;'d'
   274   00FE3A  20                 	db	32
   275   00FE3B  00                 	db	0
   276   00FE3C                     STR_6:
   277   00FE3C  50                 	db	80	;'P'
   278   00FE3D  61                 	db	97	;'a'
   279   00FE3E  73                 	db	115	;'s'
   280   00FE3F  73                 	db	115	;'s'
   281   00FE40  77                 	db	119	;'w'
   282   00FE41  6F                 	db	111	;'o'
   283   00FE42  72                 	db	114	;'r'
   284   00FE43  64                 	db	100	;'d'
   285   00FE44  20                 	db	32
   286   00FE45  49                 	db	73	;'I'
   287   00FE46  73                 	db	115	;'s'
   288   00FE47  20                 	db	32
   289   00FE48  43                 	db	67	;'C'
   290   00FE49  6F                 	db	111	;'o'
   291   00FE4A  72                 	db	114	;'r'
   292   00FE4B  72                 	db	114	;'r'
   293   00FE4C  65                 	db	101	;'e'
   294   00FE4D  63                 	db	99	;'c'
   295   00FE4E  74                 	db	116	;'t'
   296   00FE4F  20                 	db	32
   297   00FE50  00                 	db	0
   298   00FE51                     STR_4:
   299   00FE51  54                 	db	84	;'T'
   300   00FE52  68                 	db	104	;'h'
   301   00FE53  65                 	db	101	;'e'
   302   00FE54  20                 	db	32
   303   00FE55  73                 	db	115	;'s'
   304   00FE56  61                 	db	97	;'a'
   305   00FE57  66                 	db	102	;'f'
   306   00FE58  65                 	db	101	;'e'
   307   00FE59  20                 	db	32
   308   00FE5A  69                 	db	105	;'i'
   309   00FE5B  73                 	db	115	;'s'
   310   00FE5C  20                 	db	32
   311   00FE5D  6C                 	db	108	;'l'
   312   00FE5E  6F                 	db	111	;'o'
   313   00FE5F  63                 	db	99	;'c'
   314   00FE60  6B                 	db	107	;'k'
   315   00FE61  65                 	db	101	;'e'
   316   00FE62  64                 	db	100	;'d'
   317   00FE63  20                 	db	32
   318   00FE64  00                 	db	0
   319   00FE65                     STR_23:
   320   00FE65  45                 	db	69	;'E'
   321   00FE66  6E                 	db	110	;'n'
   322   00FE67  74                 	db	116	;'t'
   323   00FE68  65                 	db	101	;'e'
   324   00FE69  72                 	db	114	;'r'
   325   00FE6A  20                 	db	32
   326   00FE6B  55                 	db	85	;'U'
   327   00FE6C  72                 	db	114	;'r'
   328   00FE6D  20                 	db	32
   329   00FE6E  50                 	db	80	;'P'
   330   00FE6F  61                 	db	97	;'a'
   331   00FE70  73                 	db	115	;'s'
   332   00FE71  73                 	db	115	;'s'
   333   00FE72  20                 	db	32
   334   00FE73  41                 	db	65	;'A'
   335   00FE74  67                 	db	103	;'g'
   336   00FE75  61                 	db	97	;'a'
   337   00FE76  69                 	db	105	;'i'
   338   00FE77  6E                 	db	110	;'n'
   339   00FE78  00                 	db	0
   340   00FE79                     STR_10:
   341   00FE79  45                 	db	69	;'E'
   342   00FE7A  6E                 	db	110	;'n'
   343   00FE7B  74                 	db	116	;'t'
   344   00FE7C  65                 	db	101	;'e'
   345   00FE7D  72                 	db	114	;'r'
   346   00FE7E  20                 	db	32
   347   00FE7F  59                 	db	89	;'Y'
   348   00FE80  6F                 	db	111	;'o'
   349   00FE81  75                 	db	117	;'u'
   350   00FE82  72                 	db	114	;'r'
   351   00FE83  20                 	db	32
   352   00FE84  4F                 	db	79	;'O'
   353   00FE85  6C                 	db	108	;'l'
   354   00FE86  64                 	db	100	;'d'
   355   00FE87  20                 	db	32
   356   00FE88  50                 	db	80	;'P'
   357   00FE89  61                 	db	97	;'a'
   358   00FE8A  73                 	db	115	;'s'
   359   00FE8B  73                 	db	115	;'s'
   360   00FE8C  00                 	db	0
   361   00FE8D                     STR_11:
   362   00FE8D  45                 	db	69	;'E'
   363   00FE8E  6E                 	db	110	;'n'
   364   00FE8F  74                 	db	116	;'t'
   365   00FE90  65                 	db	101	;'e'
   366   00FE91  72                 	db	114	;'r'
   367   00FE92  20                 	db	32
   368   00FE93  59                 	db	89	;'Y'
   369   00FE94  6F                 	db	111	;'o'
   370   00FE95  75                 	db	117	;'u'
   371   00FE96  72                 	db	114	;'r'
   372   00FE97  20                 	db	32
   373   00FE98  4E                 	db	78	;'N'
   374   00FE99  65                 	db	101	;'e'
   375   00FE9A  77                 	db	119	;'w'
   376   00FE9B  20                 	db	32
   377   00FE9C  50                 	db	80	;'P'
   378   00FE9D  61                 	db	97	;'a'
   379   00FE9E  73                 	db	115	;'s'
   380   00FE9F  73                 	db	115	;'s'
   381   00FEA0  00                 	db	0
   382   00FEA1                     STR_19:
   383   00FEA1  53                 	db	83	;'S'
   384   00FEA2  65                 	db	101	;'e'
   385   00FEA3  74                 	db	116	;'t'
   386   00FEA4  20                 	db	32
   387   00FEA5  59                 	db	89	;'Y'
   388   00FEA6  6F                 	db	111	;'o'
   389   00FEA7  75                 	db	117	;'u'
   390   00FEA8  72                 	db	114	;'r'
   391   00FEA9  20                 	db	32
   392   00FEAA  50                 	db	80	;'P'
   393   00FEAB  61                 	db	97	;'a'
   394   00FEAC  73                 	db	115	;'s'
   395   00FEAD  73                 	db	115	;'s'
   396   00FEAE  77                 	db	119	;'w'
   397   00FEAF  6F                 	db	111	;'o'
   398   00FEB0  72                 	db	114	;'r'
   399   00FEB1  64                 	db	100	;'d'
   400   00FEB2  20                 	db	32
   401   00FEB3  00                 	db	0
   402   00FEB4                     STR_7:
   403   00FEB4  50                 	db	80	;'P'
   404   00FEB5  61                 	db	97	;'a'
   405   00FEB6  73                 	db	115	;'s'
   406   00FEB7  73                 	db	115	;'s'
   407   00FEB8  77                 	db	119	;'w'
   408   00FEB9  6F                 	db	111	;'o'
   409   00FEBA  72                 	db	114	;'r'
   410   00FEBB  64                 	db	100	;'d'
   411   00FEBC  20                 	db	32
   412   00FEBD  49                 	db	73	;'I'
   413   00FEBE  73                 	db	115	;'s'
   414   00FEBF  20                 	db	32
   415   00FEC0  57                 	db	87	;'W'
   416   00FEC1  72                 	db	114	;'r'
   417   00FEC2  6F                 	db	111	;'o'
   418   00FEC3  6E                 	db	110	;'n'
   419   00FEC4  67                 	db	103	;'g'
   420   00FEC5  20                 	db	32
   421   00FEC6  00                 	db	0
   422   00FEC7                     STR_38:
   423   00FEC7  54                 	db	84	;'T'
   424   00FEC8  72                 	db	114	;'r'
   425   00FEC9  79                 	db	121	;'y'
   426   00FECA  20                 	db	32
   427   00FECB  61                 	db	97	;'a'
   428   00FECC  67                 	db	103	;'g'
   429   00FECD  61                 	db	97	;'a'
   430   00FECE  69                 	db	105	;'i'
   431   00FECF  6E                 	db	110	;'n'
   432   00FED0  20                 	db	32
   433   00FED1  61                 	db	97	;'a'
   434   00FED2  66                 	db	102	;'f'
   435   00FED3  74                 	db	116	;'t'
   436   00FED4  65                 	db	101	;'e'
   437   00FED5  72                 	db	114	;'r'
   438   00FED6  3A                 	db	58	;':'
   439   00FED7  20                 	db	32
   440   00FED8  31                 	db	49	;'1'
   441   00FED9  00                 	db	0
   442   00FEDA                     STR_37:
   443   00FEDA  54                 	db	84	;'T'
   444   00FEDB  72                 	db	114	;'r'
   445   00FEDC  79                 	db	121	;'y'
   446   00FEDD  20                 	db	32
   447   00FEDE  61                 	db	97	;'a'
   448   00FEDF  67                 	db	103	;'g'
   449   00FEE0  61                 	db	97	;'a'
   450   00FEE1  69                 	db	105	;'i'
   451   00FEE2  6E                 	db	110	;'n'
   452   00FEE3  20                 	db	32
   453   00FEE4  61                 	db	97	;'a'
   454   00FEE5  66                 	db	102	;'f'
   455   00FEE6  74                 	db	116	;'t'
   456   00FEE7  65                 	db	101	;'e'
   457   00FEE8  72                 	db	114	;'r'
   458   00FEE9  3A                 	db	58	;':'
   459   00FEEA  20                 	db	32
   460   00FEEB  32                 	db	50	;'2'
   461   00FEEC  00                 	db	0
   462   00FEED                     STR_36:
   463   00FEED  54                 	db	84	;'T'
   464   00FEEE  72                 	db	114	;'r'
   465   00FEEF  79                 	db	121	;'y'
   466   00FEF0  20                 	db	32
   467   00FEF1  61                 	db	97	;'a'
   468   00FEF2  67                 	db	103	;'g'
   469   00FEF3  61                 	db	97	;'a'
   470   00FEF4  69                 	db	105	;'i'
   471   00FEF5  6E                 	db	110	;'n'
   472   00FEF6  20                 	db	32
   473   00FEF7  61                 	db	97	;'a'
   474   00FEF8  66                 	db	102	;'f'
   475   00FEF9  74                 	db	116	;'t'
   476   00FEFA  65                 	db	101	;'e'
   477   00FEFB  72                 	db	114	;'r'
   478   00FEFC  3A                 	db	58	;':'
   479   00FEFD  20                 	db	32
   480   00FEFE  33                 	db	51	;'3'
   481   00FEFF  00                 	db	0
   482   00FF00                     STR_35:
   483   00FF00  54                 	db	84	;'T'
   484   00FF01  72                 	db	114	;'r'
   485   00FF02  79                 	db	121	;'y'
   486   00FF03  20                 	db	32
   487   00FF04  61                 	db	97	;'a'
   488   00FF05  67                 	db	103	;'g'
   489   00FF06  61                 	db	97	;'a'
   490   00FF07  69                 	db	105	;'i'
   491   00FF08  6E                 	db	110	;'n'
   492   00FF09  20                 	db	32
   493   00FF0A  61                 	db	97	;'a'
   494   00FF0B  66                 	db	102	;'f'
   495   00FF0C  74                 	db	116	;'t'
   496   00FF0D  65                 	db	101	;'e'
   497   00FF0E  72                 	db	114	;'r'
   498   00FF0F  3A                 	db	58	;':'
   499   00FF10  20                 	db	32
   500   00FF11  34                 	db	52	;'4'
   501   00FF12  00                 	db	0
   502   00FF13                     STR_34:
   503   00FF13  54                 	db	84	;'T'
   504   00FF14  72                 	db	114	;'r'
   505   00FF15  79                 	db	121	;'y'
   506   00FF16  20                 	db	32
   507   00FF17  61                 	db	97	;'a'
   508   00FF18  67                 	db	103	;'g'
   509   00FF19  61                 	db	97	;'a'
   510   00FF1A  69                 	db	105	;'i'
   511   00FF1B  6E                 	db	110	;'n'
   512   00FF1C  20                 	db	32
   513   00FF1D  61                 	db	97	;'a'
   514   00FF1E  66                 	db	102	;'f'
   515   00FF1F  74                 	db	116	;'t'
   516   00FF20  65                 	db	101	;'e'
   517   00FF21  72                 	db	114	;'r'
   518   00FF22  3A                 	db	58	;':'
   519   00FF23  20                 	db	32
   520   00FF24  35                 	db	53	;'5'
   521   00FF25  00                 	db	0
   522   00FF26                     STR_21:
   523   00FF26  45                 	db	69	;'E'
   524   00FF27  78                 	db	120	;'x'
   525   00FF28  63                 	db	99	;'c'
   526   00FF29  65                 	db	101	;'e'
   527   00FF2A  65                 	db	101	;'e'
   528   00FF2B  64                 	db	100	;'d'
   529   00FF2C  73                 	db	115	;'s'
   530   00FF2D  20                 	db	32
   531   00FF2E  4D                 	db	77	;'M'
   532   00FF2F  61                 	db	97	;'a'
   533   00FF30  78                 	db	120	;'x'
   534   00FF31  20                 	db	32
   535   00FF32  4C                 	db	76	;'L'
   536   00FF33  65                 	db	101	;'e'
   537   00FF34  6E                 	db	110	;'n'
   538   00FF35  67                 	db	103	;'g'
   539   00FF36  74                 	db	116	;'t'
   540   00FF37  68                 	db	104	;'h'
   541   00FF38  00                 	db	0
   542   00FF39                     STR_30:
   543   00FF39  4D                 	db	77	;'M'
   544   00FF3A  69                 	db	105	;'i'
   545   00FF3B  6E                 	db	110	;'n'
   546   00FF3C  69                 	db	105	;'i'
   547   00FF3D  6D                 	db	109	;'m'
   548   00FF3E  75                 	db	117	;'u'
   549   00FF3F  6D                 	db	109	;'m'
   550   00FF40  20                 	db	32
   551   00FF41  4C                 	db	76	;'L'
   552   00FF42  65                 	db	101	;'e'
   553   00FF43  6E                 	db	110	;'n'
   554   00FF44  67                 	db	103	;'g'
   555   00FF45  74                 	db	116	;'t'
   556   00FF46  68                 	db	104	;'h'
   557   00FF47  20                 	db	32
   558   00FF48  69                 	db	105	;'i'
   559   00FF49  73                 	db	115	;'s'
   560   00FF4A  00                 	db	0
   561   00FF4B                     STR_18:
   562   00FF4B  32                 	db	50	;'2'
   563   00FF4C  29                 	db	41
   564   00FF4D  43                 	db	67	;'C'
   565   00FF4E  68                 	db	104	;'h'
   566   00FF4F  61                 	db	97	;'a'
   567   00FF50  6E                 	db	110	;'n'
   568   00FF51  67                 	db	103	;'g'
   569   00FF52  65                 	db	101	;'e'
   570   00FF53  20                 	db	32
   571   00FF54  54                 	db	84	;'T'
   572   00FF55  68                 	db	104	;'h'
   573   00FF56  65                 	db	101	;'e'
   574   00FF57  20                 	db	32
   575   00FF58  50                 	db	80	;'P'
   576   00FF59  61                 	db	97	;'a'
   577   00FF5A  73                 	db	115	;'s'
   578   00FF5B  73                 	db	115	;'s'
   579   00FF5C  00                 	db	0
   580   00FF5D                     STR_26:
   581   00FF5D  50                 	db	80	;'P'
   582   00FF5E  61                 	db	97	;'a'
   583   00FF5F  73                 	db	115	;'s'
   584   00FF60  73                 	db	115	;'s'
   585   00FF61  77                 	db	119	;'w'
   586   00FF62  6F                 	db	111	;'o'
   587   00FF63  72                 	db	114	;'r'
   588   00FF64  64                 	db	100	;'d'
   589   00FF65  73                 	db	115	;'s'
   590   00FF66  20                 	db	32
   591   00FF67  61                 	db	97	;'a'
   592   00FF68  72                 	db	114	;'r'
   593   00FF69  65                 	db	101	;'e'
   594   00FF6A  20                 	db	32
   595   00FF6B  6E                 	db	110	;'n'
   596   00FF6C  6F                 	db	111	;'o'
   597   00FF6D  74                 	db	116	;'t'
   598   00FF6E  00                 	db	0
   599   00FF6F                     STR_22:
   600   00FF6F  4D                 	db	77	;'M'
   601   00FF70  61                 	db	97	;'a'
   602   00FF71  78                 	db	120	;'x'
   603   00FF72  20                 	db	32
   604   00FF73  4C                 	db	76	;'L'
   605   00FF74  65                 	db	101	;'e'
   606   00FF75  6E                 	db	110	;'n'
   607   00FF76  67                 	db	103	;'g'
   608   00FF77  74                 	db	116	;'t'
   609   00FF78  68                 	db	104	;'h'
   610   00FF79  20                 	db	32
   611   00FF7A  49                 	db	73	;'I'
   612   00FF7B  73                 	db	115	;'s'
   613   00FF7C  20                 	db	32
   614   00FF7D  31                 	db	49	;'1'
   615   00FF7E  30                 	db	48	;'0'
   616   00FF7F  00                 	db	0
   617   00FF80                     STR_8:
   618   00FF80  57                 	db	87	;'W'
   619   00FF81  72                 	db	114	;'r'
   620   00FF82  6F                 	db	111	;'o'
   621   00FF83  6E                 	db	110	;'n'
   622   00FF84  67                 	db	103	;'g'
   623   00FF85  20                 	db	32
   624   00FF86  41                 	db	65	;'A'
   625   00FF87  74                 	db	116	;'t'
   626   00FF88  74                 	db	116	;'t'
   627   00FF89  65                 	db	101	;'e'
   628   00FF8A  6D                 	db	109	;'m'
   629   00FF8B  70                 	db	112	;'p'
   630   00FF8C  74                 	db	116	;'t'
   631   00FF8D  73                 	db	115	;'s'
   632   00FF8E  20                 	db	32
   633   00FF8F  00                 	db	0
   634   00FF90                     STR_17:
   635   00FF90  31                 	db	49	;'1'
   636   00FF91  29                 	db	41
   637   00FF92  4F                 	db	79	;'O'
   638   00FF93  70                 	db	112	;'p'
   639   00FF94  65                 	db	101	;'e'
   640   00FF95  6E                 	db	110	;'n'
   641   00FF96  20                 	db	32
   642   00FF97  54                 	db	84	;'T'
   643   00FF98  68                 	db	104	;'h'
   644   00FF99  65                 	db	101	;'e'
   645   00FF9A  20                 	db	32
   646   00FF9B  53                 	db	83	;'S'
   647   00FF9C  61                 	db	97	;'a'
   648   00FF9D  66                 	db	102	;'f'
   649   00FF9E  65                 	db	101	;'e'
   650   00FF9F  00                 	db	0
   651   00FFA0                     STR_20:
   652   00FFA0  50                 	db	80	;'P'
   653   00FFA1  61                 	db	97	;'a'
   654   00FFA2  73                 	db	115	;'s'
   655   00FFA3  73                 	db	115	;'s'
   656   00FFA4  77                 	db	119	;'w'
   657   00FFA5  6F                 	db	111	;'o'
   658   00FFA6  72                 	db	114	;'r'
   659   00FFA7  64                 	db	100	;'d'
   660   00FFA8  20                 	db	32
   661   00FFA9  4C                 	db	76	;'L'
   662   00FFAA  65                 	db	101	;'e'
   663   00FFAB  6E                 	db	110	;'n'
   664   00FFAC  67                 	db	103	;'g'
   665   00FFAD  74                 	db	116	;'t'
   666   00FFAE  68                 	db	104	;'h'
   667   00FFAF  00                 	db	0
   668   00FFB0                     STR_28:
   669   00FFB0  50                 	db	80	;'P'
   670   00FFB1  61                 	db	97	;'a'
   671   00FFB2  73                 	db	115	;'s'
   672   00FFB3  73                 	db	115	;'s'
   673   00FFB4  77                 	db	119	;'w'
   674   00FFB5  6F                 	db	111	;'o'
   675   00FFB6  72                 	db	114	;'r'
   676   00FFB7  64                 	db	100	;'d'
   677   00FFB8  20                 	db	32
   678   00FFB9  69                 	db	105	;'i'
   679   00FFBA  73                 	db	115	;'s'
   680   00FFBB  20                 	db	32
   681   00FFBC  74                 	db	116	;'t'
   682   00FFBD  6F                 	db	111	;'o'
   683   00FFBE  6F                 	db	111	;'o'
   684   00FFBF  00                 	db	0
   685   00FFC0                     STR_12:
   686   00FFC0  50                 	db	80	;'P'
   687   00FFC1  61                 	db	97	;'a'
   688   00FFC2  73                 	db	115	;'s'
   689   00FFC3  73                 	db	115	;'s'
   690   00FFC4  77                 	db	119	;'w'
   691   00FFC5  6F                 	db	111	;'o'
   692   00FFC6  72                 	db	114	;'r'
   693   00FFC7  64                 	db	100	;'d'
   694   00FFC8  20                 	db	32
   695   00FFC9  53                 	db	83	;'S'
   696   00FFCA  65                 	db	101	;'e'
   697   00FFCB  74                 	db	116	;'t'
   698   00FFCC  00                 	db	0
   699   00FFCD                     STR_13:
   700   00FFCD  53                 	db	83	;'S'
   701   00FFCE  75                 	db	117	;'u'
   702   00FFCF  63                 	db	99	;'c'
   703   00FFD0  63                 	db	99	;'c'
   704   00FFD1  65                 	db	101	;'e'
   705   00FFD2  73                 	db	115	;'s'
   706   00FFD3  73                 	db	115	;'s'
   707   00FFD4  66                 	db	102	;'f'
   708   00FFD5  75                 	db	117	;'u'
   709   00FFD6  6C                 	db	108	;'l'
   710   00FFD7  6C                 	db	108	;'l'
   711   00FFD8  79                 	db	121	;'y'
   712   00FFD9  00                 	db	0
   713   00FFDA                     STR_31:
   714   00FFDA  34                 	db	52	;'4'
   715   00FFDB  20                 	db	32
   716   00FFDC  64                 	db	100	;'d'
   717   00FFDD  69                 	db	105	;'i'
   718   00FFDE  67                 	db	103	;'g'
   719   00FFDF  69                 	db	105	;'i'
   720   00FFE0  74                 	db	116	;'t'
   721   00FFE1  73                 	db	115	;'s'
   722   00FFE2  00                 	db	0
   723   00FFE3                     STR_27:
   724   00FFE3  4D                 	db	77	;'M'
   725   00FFE4  61                 	db	97	;'a'
   726   00FFE5  74                 	db	116	;'t'
   727   00FFE6  63                 	db	99	;'c'
   728   00FFE7  68                 	db	104	;'h'
   729   00FFE8  65                 	db	101	;'e'
   730   00FFE9  64                 	db	100	;'d'
   731   00FFEA  00                 	db	0
   732   00FFEB                     STR_9:
   733   00FFEB  28                 	db	40
   734   00FFEC  20                 	db	32
   735   00FFED  2F                 	db	47
   736   00FFEE  33                 	db	51	;'3'
   737   00FFEF  29                 	db	41
   738   00FFF0  00                 	db	0
   739   00FFF1                     STR_29:
   740   00FFF1  53                 	db	83	;'S'
   741   00FFF2  68                 	db	104	;'h'
   742   00FFF3  6F                 	db	111	;'o'
   743   00FFF4  72                 	db	114	;'r'
   744   00FFF5  74                 	db	116	;'t'
   745   00FFF6  00                 	db	0
   746   00FFF7  25                 	db	37
   747   00FFF8  6C                 	db	108	;'l'
   748   00FFF9  64                 	db	100	;'d'
   749   00FFFA  00                 	db	0
   750   00FFFB                     STR_1:
   751   00FFFB  25                 	db	37
   752   00FFFC  69                 	db	105	;'i'
   753   00FFFD  00                 	db	0
   754   00FFFE  00                 	db	0	; dummy byte at the end
   755   000000                     
   756                           ; #config settings
   757                           
   758                           	psect	cinit
   759   00E472                     __pcinit:
   760                           	callstack 0
   761   00E472                     start_initialization:
   762                           	callstack 0
   763   00E472                     __initialization:
   764                           	callstack 0
   765                           
   766                           ; Initialize objects allocated to BANK0 (68 bytes)
   767                           ; load TBLPTR registers with __pidataBANK0
   768   00E472  0E68               	movlw	low __pidataBANK0
   769   00E474  6EF6               	movwf	tblptrl,c
   770   00E476  0EE2               	movlw	high __pidataBANK0
   771   00E478  6EF7               	movwf	tblptrh,c
   772   00E47A  0E00               	movlw	low (__pidataBANK0 shr (0+16))
   773   00E47C  6EF8               	movwf	tblptru,c
   774   00E47E  EE00  F060         	lfsr	0,__pdataBANK0
   775   00E482  EE10 F044          	lfsr	1,68
   776   00E486                     copy_data0:
   777   00E486  0009               	tblrd		*+
   778   00E488  CFF5 FFEE          	movff	tablat,postinc0
   779   00E48C  50E5               	movf	postdec1,w,c
   780   00E48E  50E1               	movf	fsr1l,w,c
   781   00E490  E1FA               	bnz	copy_data0
   782                           
   783                           ; Initialize objects allocated to COMRAM (13 bytes)
   784                           ; load TBLPTR registers with __pidataCOMRAM
   785   00E492  0E3D               	movlw	low __pidataCOMRAM
   786   00E494  6EF6               	movwf	tblptrl,c
   787   00E496  0EE1               	movlw	high __pidataCOMRAM
   788   00E498  6EF7               	movwf	tblptrh,c
   789   00E49A  0E00               	movlw	low (__pidataCOMRAM shr (0+16))
   790   00E49C  6EF8               	movwf	tblptru,c
   791   00E49E  EE00  F049         	lfsr	0,__pdataCOMRAM
   792   00E4A2  EE10 F00D          	lfsr	1,13
   793   00E4A6                     copy_data1:
   794   00E4A6  0009               	tblrd		*+
   795   00E4A8  CFF5 FFEE          	movff	tablat,postinc0
   796   00E4AC  50E5               	movf	postdec1,w,c
   797   00E4AE  50E1               	movf	fsr1l,w,c
   798   00E4B0  E1FA               	bnz	copy_data1
   799                           
   800                           ; Clear objects allocated to BANK0 (20 bytes)
   801   00E4B2  EE00  F0A4         	lfsr	0,__pbssBANK0
   802   00E4B6  0E14               	movlw	20
   803   00E4B8                     clear_0:
   804   00E4B8  6AEE               	clrf	postinc0,c
   805   00E4BA  06E8               	decf	wreg,f,c
   806   00E4BC  E1FD               	bnz	clear_0
   807                           
   808                           ; Clear objects allocated to COMRAM (9 bytes)
   809   00E4BE  EE00  F056         	lfsr	0,__pbssCOMRAM
   810   00E4C2  0E09               	movlw	9
   811   00E4C4                     clear_1:
   812   00E4C4  6AEE               	clrf	postinc0,c
   813   00E4C6  06E8               	decf	wreg,f,c
   814   00E4C8  E1FD               	bnz	clear_1
   815   00E4CA                     end_of_initialization:
   816                           	callstack 0
   817   00E4CA                     __end_of__initialization:
   818                           	callstack 0
   819   00E4CA  0E00               	movlw	low (__Lmediumconst shr (0+16))
   820   00E4CC  6EF8               	movwf	tblptru,c
   821   00E4CE  0100               	movlb	0
   822   00E4D0  EFEA  F079         	goto	_main	;jump to C main() function
   823                           
   824                           	psect	bssCOMRAM
   825   000056                     __pbssCOMRAM:
   826                           	callstack 0
   827   000056                     _password_digits_counter:
   828                           	callstack 0
   829   000056                     	ds	1
   830   000057                     Led_toggle@F3312:
   831                           	callstack 0
   832   000057                     	ds	1
   833   000058                     Led_turn_off@F3307:
   834                           	callstack 0
   835   000058                     	ds	1
   836   000059                     Led_turn_on@F3302:
   837                           	callstack 0
   838   000059                     	ds	1
   839   00005A                     Led_initialaize@F3297:
   840                           	callstack 0
   841   00005A                     	ds	1
   842   00005B                     buzzer_toggle@F3312:
   843                           	callstack 0
   844   00005B                     	ds	1
   845   00005C                     buzzer_turn_off@F3307:
   846                           	callstack 0
   847   00005C                     	ds	1
   848   00005D                     buzzer_turn_on@F3302:
   849                           	callstack 0
   850   00005D                     	ds	1
   851   00005E                     buzzer_initialaize@F3297:
   852                           	callstack 0
   853   00005E                     	ds	1
   854                           
   855                           	psect	dataCOMRAM
   856   000049                     __pdataCOMRAM:
   857                           	callstack 0
   858   000049                     _wrong_attempts_set_pass:
   859                           	callstack 0
   860   000049                     	ds	1
   861   00004A                     _wrong_attempts:
   862                           	callstack 0
   863   00004A                     	ds	1
   864   00004B                     _lcd:
   865                           	callstack 0
   866   00004B                     	ds	6
   867   000051                     _dc_motor:
   868                           	callstack 0
   869   000051                     	ds	2
   870   000053                     _buzzer:
   871                           	callstack 0
   872   000053                     	ds	1
   873   000054                     _red_led:
   874                           	callstack 0
   875   000054                     	ds	1
   876   000055                     _green_led:
   877                           	callstack 0
   878   000055                     	ds	1
   879                           
   880                           	psect	bssBANK0
   881   0000A4                     __pbssBANK0:
   882                           	callstack 0
   883   0000A4                     	ds	10
   884   0000AE                     	ds	10
   885                           
   886                           	psect	dataBANK0
   887   000060                     __pdataBANK0:
   888                           	callstack 0
   889   000060                     set_password@F3511:
   890                           	callstack 0
   891   000060                     	ds	10
   892   00006A                     set_password@F3509:
   893                           	callstack 0
   894   00006A                     	ds	10
   895   000074                     _TRIS_Registers:
   896                           	callstack 0
   897   000074                     	ds	10
   898   00007E                     _LAT_Registers:
   899                           	callstack 0
   900   00007E                     	ds	10
   901   000088                     _PORT_Registers:
   902                           	callstack 0
   903   000088                     	ds	10
   904   000092                     _Password:
   905                           	callstack 0
   906   000092                     	ds	10
   907   00009C                     _keypad:
   908                           	callstack 0
   909   00009C                     	ds	8
   910                           
   911                           	psect	cstackCOMRAM
   912   000001                     __pcstackCOMRAM:
   913                           	callstack 0
   914   000001                     ?_strcmp:
   915                           	callstack 0
   916   000001                     gpio_pin_direction_initialize@Pin_config:
   917                           	callstack 0
   918   000001                     gpio_pin_write_logic@Pin_config:
   919                           	callstack 0
   920   000001                     gpio_pin_read_logic@Pin_config:
   921                           	callstack 0
   922   000001                     EEPROM_WRITE_BYTE@bAdd:
   923                           	callstack 0
   924   000001                     EEPROM_READ_BYTE@bAdd:
   925                           	callstack 0
   926   000001                     clear_the_entered_password@_password:
   927                           	callstack 0
   928   000001                     strcmp@l:
   929                           	callstack 0
   930                           
   931                           ; 2 bytes @ 0x0
   932   000001                     	ds	2
   933   000003                     ??_gpio_pin_direction_initialize:
   934   000003                     gpio_pin_write_logic@logic:
   935                           	callstack 0
   936   000003                     EEPROM_WRITE_BYTE@data:
   937                           	callstack 0
   938   000003                     clear_the_entered_password@ret:
   939                           	callstack 0
   940   000003                     gpio_pin_read_logic@logic:
   941                           	callstack 0
   942   000003                     EEPROM_READ_BYTE@data:
   943                           	callstack 0
   944   000003                     strcmp@r:
   945                           	callstack 0
   946                           
   947                           ; 2 bytes @ 0x2
   948   000003                     	ds	1
   949   000004                     ??_gpio_pin_write_logic:
   950   000004                     EEPROM_WRITE_BYTE@interrupt_status:
   951                           	callstack 0
   952   000004                     clear_the_entered_password@temp_password_digits_counter:
   953                           	callstack 0
   954                           
   955                           ; 1 bytes @ 0x3
   956   000004                     	ds	1
   957   000005                     ??_gpio_pin_read_logic:
   958   000005                     ??_strcmp:
   959   000005                     clear_password_from_eeprom@ret:
   960                           	callstack 0
   961   000005                     password_compare_with_eeprom@Password:
   962                           	callstack 0
   963   000005                     write_the_password_in_eeprom@password:
   964                           	callstack 0
   965                           
   966                           ; 2 bytes @ 0x4
   967   000005                     	ds	1
   968   000006                     clear_password_from_eeprom@temp_password_digits_counter:
   969                           	callstack 0
   970                           
   971                           ; 1 bytes @ 0x5
   972   000006                     	ds	1
   973   000007                     write_the_password_in_eeprom@password_length:
   974                           	callstack 0
   975   000007                     password_compare_with_eeprom@compare_status:
   976                           	callstack 0
   977                           
   978                           ; 2 bytes @ 0x6
   979   000007                     	ds	1
   980   000008                     write_the_password_in_eeprom@ret:
   981                           	callstack 0
   982                           
   983                           ; 1 bytes @ 0x7
   984   000008                     	ds	1
   985   000009                     gpio_pin_direction_initialize@ret:
   986                           	callstack 0
   987   000009                     write_the_password_in_eeprom@temp_password_digits_counter:
   988                           	callstack 0
   989                           
   990                           ; 1 bytes @ 0x8
   991   000009                     	ds	1
   992   00000A                     gpio_pin_write_logic@ret:
   993                           	callstack 0
   994   00000A                     gpio_pin_read_logic@ret:
   995                           	callstack 0
   996   00000A                     password_compare_with_eeprom@wrong_password_flag:
   997                           	callstack 0
   998                           
   999                           ; 1 bytes @ 0x9
  1000   00000A                     	ds	1
  1001   00000B                     password_compare_with_eeprom@ret:
  1002                           	callstack 0
  1003   00000B                     buzzer_turn_on@buzzer_obj:
  1004                           	callstack 0
  1005   00000B                     buzzer_turn_off@buzzer_obj:
  1006                           	callstack 0
  1007   00000B                     dc_motor_rotate_right@dc_motor:
  1008                           	callstack 0
  1009   00000B                     dc_motor_stop@dc_motor:
  1010                           	callstack 0
  1011   00000B                     read_keypad@keypad:
  1012                           	callstack 0
  1013   00000B                     lcd_send_4bits@lcd:
  1014                           	callstack 0
  1015   00000B                     lcd_4bit_send_enable@lcd:
  1016                           	callstack 0
  1017   00000B                     Led_turn_on@led:
  1018                           	callstack 0
  1019   00000B                     Led_turn_off@led:
  1020                           	callstack 0
  1021   00000B                     gpio_pin_initialize@Pin_config:
  1022                           	callstack 0
  1023                           
  1024                           ; 2 bytes @ 0xA
  1025   00000B                     	ds	1
  1026   00000C                     password_compare_with_eeprom@eeprom_elemnt:
  1027                           	callstack 0
  1028                           
  1029                           ; 1 bytes @ 0xB
  1030   00000C                     	ds	1
  1031   00000D                     ??_buzzer_turn_on:
  1032   00000D                     ??_buzzer_turn_off:
  1033   00000D                     ??_Led_turn_on:
  1034   00000D                     ??_Led_turn_off:
  1035   00000D                     dc_motor_rotate_right@ret:
  1036                           	callstack 0
  1037   00000D                     dc_motor_stop@ret:
  1038                           	callstack 0
  1039   00000D                     lcd_send_4bits@value:
  1040                           	callstack 0
  1041   00000D                     lcd_4bit_send_enable@ret:
  1042                           	callstack 0
  1043   00000D                     gpio_pin_initialize@ret:
  1044                           	callstack 0
  1045   00000D                     password_compare_with_eeprom@temp_password_digits_counter:
  1046                           	callstack 0
  1047   00000D                     read_keypad@value:
  1048                           	callstack 0
  1049                           
  1050                           ; 2 bytes @ 0xC
  1051   00000D                     	ds	1
  1052   00000E                     ??_lcd_send_4bits:
  1053   00000E                     buzzer_turn_on@ret:
  1054                           	callstack 0
  1055   00000E                     buzzer_turn_off@ret:
  1056                           	callstack 0
  1057   00000E                     Led_turn_on@ret:
  1058                           	callstack 0
  1059   00000E                     Led_turn_off@ret:
  1060                           	callstack 0
  1061   00000E                     buzzer_initialaize@buzzer_obj:
  1062                           	callstack 0
  1063   00000E                     dc_motor_intialize@dc_motor:
  1064                           	callstack 0
  1065   00000E                     keypad_initialize@keypad:
  1066                           	callstack 0
  1067   00000E                     Led_initialaize@led:
  1068                           	callstack 0
  1069                           
  1070                           ; 2 bytes @ 0xD
  1071   00000E                     	ds	1
  1072   00000F                     ??_read_keypad:
  1073   00000F                     buzzer_turn_on@Pin_config:
  1074                           	callstack 0
  1075   00000F                     buzzer_turn_off@Pin_config:
  1076                           	callstack 0
  1077   00000F                     Led_turn_on@Pin_config:
  1078                           	callstack 0
  1079   00000F                     Led_turn_off@Pin_config:
  1080                           	callstack 0
  1081                           
  1082                           ; 1 bytes @ 0xE
  1083   00000F                     	ds	1
  1084   000010                     ??_buzzer_initialaize:
  1085   000010                     ??_keypad_initialize:
  1086   000010                     ??_Led_initialaize:
  1087   000010                     dc_motor_intialize@ret:
  1088                           	callstack 0
  1089                           
  1090                           ; 1 bytes @ 0xF
  1091   000010                     	ds	1
  1092   000011                     buzzer_initialaize@ret:
  1093                           	callstack 0
  1094   000011                     read_keypad@ret:
  1095                           	callstack 0
  1096   000011                     Led_initialaize@ret:
  1097                           	callstack 0
  1098                           
  1099                           ; 1 bytes @ 0x10
  1100   000011                     	ds	1
  1101   000012                     buzzer_initialaize@Pin_config:
  1102                           	callstack 0
  1103   000012                     keypad_initialize@ret:
  1104                           	callstack 0
  1105   000012                     read_keypad@pressed_but:
  1106                           	callstack 0
  1107   000012                     lcd_send_4bits@ret:
  1108                           	callstack 0
  1109   000012                     Led_initialaize@Pin_config:
  1110                           	callstack 0
  1111                           
  1112                           ; 1 bytes @ 0x11
  1113   000012                     	ds	1
  1114   000013                     keypad_initialize@rows_counter:
  1115                           	callstack 0
  1116   000013                     read_keypad@l_rows_counter:
  1117                           	callstack 0
  1118   000013                     lcd_send_4bits@l_pin_counter:
  1119                           	callstack 0
  1120                           
  1121                           ; 1 bytes @ 0x12
  1122   000013                     	ds	1
  1123   000014                     keypad_initialize@cols_counter:
  1124                           	callstack 0
  1125   000014                     read_keypad@rows_counter:
  1126                           	callstack 0
  1127   000014                     lcd_4bit_send_cmd@lcd:
  1128                           	callstack 0
  1129                           
  1130                           ; 2 bytes @ 0x13
  1131   000014                     	ds	1
  1132   000015                     read_keypad@l_cols_counter:
  1133                           	callstack 0
  1134                           
  1135                           ; 1 bytes @ 0x14
  1136   000015                     	ds	1
  1137   000016                     lcd_4bit_send_cmd@cmd:
  1138                           	callstack 0
  1139                           
  1140                           ; 1 bytes @ 0x15
  1141   000016                     	ds	1
  1142   000017                     lcd_4bit_send_cmd@ret:
  1143                           	callstack 0
  1144                           
  1145                           ; 1 bytes @ 0x16
  1146   000017                     	ds	1
  1147   000018                     lcd_4bit_initialize@lcd:
  1148                           	callstack 0
  1149   000018                     lcd_4bit_set_cursor@lcd:
  1150                           	callstack 0
  1151                           
  1152                           ; 2 bytes @ 0x17
  1153   000018                     	ds	2
  1154   00001A                     ??_lcd_4bit_initialize:
  1155   00001A                     lcd_4bit_set_cursor@row:
  1156                           	callstack 0
  1157                           
  1158                           ; 1 bytes @ 0x19
  1159   00001A                     	ds	1
  1160   00001B                     lcd_4bit_set_cursor@col:
  1161                           	callstack 0
  1162                           
  1163                           ; 1 bytes @ 0x1A
  1164   00001B                     	ds	1
  1165   00001C                     ??_lcd_4bit_set_cursor:
  1166   00001C                     lcd_4bit_initialize@l_pin_counter:
  1167                           	callstack 0
  1168                           
  1169                           ; 1 bytes @ 0x1B
  1170   00001C                     	ds	1
  1171   00001D                     lcd_4bit_initialize@ret:
  1172                           	callstack 0
  1173                           
  1174                           ; 1 bytes @ 0x1C
  1175   00001D                     	ds	1
  1176   00001E                     lcd_4bit_set_cursor@ret:
  1177                           	callstack 0
  1178   00001E                     ecu_layer_initialize@ret:
  1179                           	callstack 0
  1180                           
  1181                           ; 1 bytes @ 0x1D
  1182   00001E                     	ds	1
  1183   00001F                     lcd_4bit_send_char_data_pos@lcd:
  1184                           	callstack 0
  1185   00001F                     lcd_4bit_send_string_data_pos@lcd:
  1186                           	callstack 0
  1187                           
  1188                           ; 2 bytes @ 0x1E
  1189   00001F                     	ds	2
  1190   000021                     lcd_4bit_send_char_data_pos@data:
  1191                           	callstack 0
  1192   000021                     lcd_4bit_send_string_data_pos@string:
  1193                           	callstack 0
  1194                           
  1195                           ; 2 bytes @ 0x20
  1196   000021                     	ds	1
  1197   000022                     lcd_4bit_send_char_data_pos@row:
  1198                           	callstack 0
  1199                           
  1200                           ; 1 bytes @ 0x21
  1201   000022                     	ds	1
  1202   000023                     lcd_4bit_send_char_data_pos@col:
  1203                           	callstack 0
  1204   000023                     lcd_4bit_send_string_data_pos@row:
  1205                           	callstack 0
  1206                           
  1207                           ; 1 bytes @ 0x22
  1208   000023                     	ds	1
  1209   000024                     lcd_4bit_send_char_data_pos@ret:
  1210                           	callstack 0
  1211   000024                     lcd_4bit_send_string_data_pos@col:
  1212                           	callstack 0
  1213                           
  1214                           ; 1 bytes @ 0x23
  1215   000024                     	ds	1
  1216   000025                     ??_lcd_4bit_send_string_data_pos:
  1217   000025                     enter_your_password@_password:
  1218                           	callstack 0
  1219                           
  1220                           ; 2 bytes @ 0x24
  1221   000025                     	ds	1
  1222   000026                     lcd_4bit_send_string_data_pos@ret:
  1223                           	callstack 0
  1224                           
  1225                           ; 1 bytes @ 0x25
  1226   000026                     	ds	1
  1227   000027                     ??_enter_your_password:
  1228   000027                     ??_try_again_after_5_sec:
  1229   000027                     choose_program@choossed_program:
  1230                           	callstack 0
  1231                           
  1232                           ; 2 bytes @ 0x26
  1233   000027                     	ds	2
  1234   000029                     enter_your_password@ret:
  1235                           	callstack 0
  1236   000029                     choose_program@ret:
  1237                           	callstack 0
  1238   000029                     try_again_after_5_sec@ret:
  1239                           	callstack 0
  1240                           
  1241                           ; 1 bytes @ 0x28
  1242   000029                     	ds	1
  1243   00002A                     enter_your_password@temp_password_digits_counter:
  1244                           	callstack 0
  1245   00002A                     choose_program@pressed_button:
  1246                           	callstack 0
  1247                           
  1248                           ; 1 bytes @ 0x29
  1249   00002A                     	ds	1
  1250   00002B                     enter_your_password@pressed_key:
  1251                           	callstack 0
  1252                           
  1253                           ; 1 bytes @ 0x2A
  1254   00002B                     	ds	1
  1255   00002C                     ??_set_passowrd_frist_time:
  1256   00002C                     ??_open_the_safe_program:
  1257   00002C                     ??_set_password:
  1258                           
  1259                           ; 1 bytes @ 0x2B
  1260   00002C                     	ds	2
  1261   00002E                     open_the_safe_program@compare_status:
  1262                           	callstack 0
  1263   00002E                     set_password@Temp_Password_1:
  1264                           	callstack 0
  1265   00002E                     set_passowrd_frist_time@Temp_Password_2:
  1266                           	callstack 0
  1267                           
  1268                           ; 10 bytes @ 0x2D
  1269   00002E                     	ds	1
  1270   00002F                     open_the_safe_program@ret:
  1271                           	callstack 0
  1272                           
  1273                           ; 1 bytes @ 0x2E
  1274   00002F                     	ds	9
  1275   000038                     set_password@Temp_Password_2:
  1276                           	callstack 0
  1277   000038                     set_passowrd_frist_time@Temp_Password_1:
  1278                           	callstack 0
  1279                           
  1280                           ; 10 bytes @ 0x37
  1281   000038                     	ds	10
  1282   000042                     set_password@compare_status:
  1283                           	callstack 0
  1284   000042                     set_passowrd_frist_time@pressed_key:
  1285                           	callstack 0
  1286                           
  1287                           ; 1 bytes @ 0x41
  1288   000042                     	ds	1
  1289   000043                     set_password@ret:
  1290                           	callstack 0
  1291   000043                     set_passowrd_frist_time@ret:
  1292                           	callstack 0
  1293                           
  1294                           ; 1 bytes @ 0x42
  1295   000043                     	ds	1
  1296   000044                     change_the_password_program@ret:
  1297                           	callstack 0
  1298                           
  1299                           ; 1 bytes @ 0x43
  1300   000044                     	ds	1
  1301   000045                     ??_main:
  1302                           
  1303                           ; 1 bytes @ 0x44
  1304   000045                     	ds	2
  1305   000047                     main@frist_time_to_use_the_safe:
  1306                           	callstack 0
  1307                           
  1308                           ; 1 bytes @ 0x46
  1309   000047                     	ds	1
  1310   000048                     main@choossed_program:
  1311                           	callstack 0
  1312                           
  1313                           ; 1 bytes @ 0x47
  1314   000048                     	ds	1
  1315                           
  1316 ;;
  1317 ;;Main: autosize = 0, tempsize = 2, incstack = 0, save=0
  1318 ;;
  1319 ;; *************** function _main *****************
  1320 ;; Defined at:
  1321 ;;		line 22 in file "App.c"
  1322 ;; Parameters:    Size  Location     Type
  1323 ;;		None
  1324 ;; Auto vars:     Size  Location     Type
  1325 ;;  choossed_pro    1   71[COMRAM] unsigned char 
  1326 ;;  frist_time_t    1   70[COMRAM] unsigned char 
  1327 ;;  ret             1    0        unsigned char 
  1328 ;; Return value:  Size  Location     Type
  1329 ;;                  2  565[None  ] int 
  1330 ;; Registers used:
  1331 ;;		wreg, fsr1l, fsr1h, fsr2l, fsr2h, status,2, status,0, tblptrl, tblptrh, tblptru, prodl, prodh, cstack
  1332 ;; Tracked objects:
  1333 ;;		On entry : 0/0
  1334 ;;		On exit  : 0/0
  1335 ;;		Unchanged: 0/0
  1336 ;; Data sizes:     COMRAM   BANK0   BANK1   BANK2   BANK3   BANK4   BANK5   BANK6   BANK7   BANK8   BANK9  BANK10  BANK1
      +1  BANK12  BANK13  BANK14  BANK15
  1337 ;;      Params:         0       0       0       0       0       0       0       0       0       0       0       0       
      +0       0       0       0       0
  1338 ;;      Locals:         2       0       0       0       0       0       0       0       0       0       0       0       
      +0       0       0       0       0
  1339 ;;      Temps:          2       0       0       0       0       0       0       0       0       0       0       0       
      +0       0       0       0       0
  1340 ;;      Totals:         4       0       0       0       0       0       0       0       0       0       0       0       
      +0       0       0       0       0
  1341 ;;Total ram usage:        4 bytes
  1342 ;; Hardware stack levels required when called: 8
  1343 ;; This function calls:
  1344 ;;		_EEPROM_READ_BYTE
  1345 ;;		_Led_turn_on
  1346 ;;		_app_initialize
  1347 ;;		_buzzer_turn_on
  1348 ;;		_change_the_password_program
  1349 ;;		_choose_program
  1350 ;;		_clear_the_entered_password
  1351 ;;		_lcd_4bit_send_cmd
  1352 ;;		_lcd_4bit_send_string_data_pos
  1353 ;;		_open_the_safe_program
  1354 ;;		_set_passowrd_frist_time
  1355 ;; This function is called by:
  1356 ;;		Startup code after reset
  1357 ;; This function uses a non-reentrant model
  1358 ;;
  1359                           
  1360                           	psect	text0
  1361   00F3D4                     __ptext0:
  1362                           	callstack 0
  1363   00F3D4                     _main:
  1364                           	callstack 23
  1365   00F3D4                     
  1366                           ;App.c: 24:     uint8 frist_time_to_use_the_safe = 0;
  1367   00F3D4  0E00               	movlw	0
  1368   00F3D6  6E47               	movwf	main@frist_time_to_use_the_safe^0,c
  1369                           
  1370                           ;App.c: 25:     uint8 choossed_program =0;
  1371   00F3D8  0E00               	movlw	0
  1372   00F3DA  6E48               	movwf	main@choossed_program^0,c
  1373   00F3DC                     
  1374                           ;App.c: 27:     app_initialize();
  1375   00F3DC  EC96  F070         	call	_app_initialize	;wreg free
  1376   00F3E0                     l4340:
  1377   00F3E0  0E03               	movlw	3
  1378   00F3E2  6E02               	movwf	(EEPROM_READ_BYTE@bAdd+1)^0,c
  1379   00F3E4  6801               	setf	EEPROM_READ_BYTE@bAdd^0,c
  1380   00F3E6  0E47               	movlw	low main@frist_time_to_use_the_safe
  1381   00F3E8  6E03               	movwf	EEPROM_READ_BYTE@data^0,c
  1382   00F3EA  0E00               	movlw	high main@frist_time_to_use_the_safe
  1383   00F3EC  6E04               	movwf	(EEPROM_READ_BYTE@data+1)^0,c
  1384   00F3EE  ECD6  F070         	call	_EEPROM_READ_BYTE	;wreg free
  1385   00F3F2                     
  1386                           ;App.c: 32:         if (0x00 != frist_time_to_use_the_safe){
  1387   00F3F2  5047               	movf	main@frist_time_to_use_the_safe^0,w,c
  1388   00F3F4  B4D8               	btfsc	status,2,c
  1389   00F3F6  EFFF  F079         	goto	u2641
  1390   00F3FA  EF01  F07A         	goto	u2640
  1391   00F3FE                     u2641:
  1392   00F3FE  EF05  F07A         	goto	l4346
  1393   00F402                     u2640:
  1394   00F402  ECD0  F07C         	call	_set_passowrd_frist_time	;wreg free
  1395                           
  1396                           ;App.c: 34:         }
  1397   00F406  EF7C  F07A         	goto	l4380
  1398   00F40A                     l4346:
  1399                           
  1400                           ;App.c: 36:             if((choossed_program!='1')&&(choossed_program!='2')){
  1401   00F40A  0E31               	movlw	49
  1402   00F40C  1848               	xorwf	main@choossed_program^0,w,c
  1403   00F40E  B4D8               	btfsc	status,2,c
  1404   00F410  EF0C  F07A         	goto	u2651
  1405   00F414  EF0E  F07A         	goto	u2650
  1406   00F418                     u2651:
  1407   00F418  EF1D  F07A         	goto	l4352
  1408   00F41C                     u2650:
  1409   00F41C  0E32               	movlw	50
  1410   00F41E  1848               	xorwf	main@choossed_program^0,w,c
  1411   00F420  B4D8               	btfsc	status,2,c
  1412   00F422  EF15  F07A         	goto	u2661
  1413   00F426  EF17  F07A         	goto	u2660
  1414   00F42A                     u2661:
  1415   00F42A  EF1D  F07A         	goto	l4352
  1416   00F42E                     u2660:
  1417   00F42E  0E48               	movlw	low main@choossed_program
  1418   00F430  6E27               	movwf	choose_program@choossed_program^0,c
  1419   00F432  0E00               	movlw	high main@choossed_program
  1420   00F434  6E28               	movwf	(choose_program@choossed_program+1)^0,c
  1421   00F436  EC60  F075         	call	_choose_program	;wreg free
  1422   00F43A                     l4352:
  1423                           
  1424                           ;App.c: 39:             _delay((unsigned long)((200)*(8000000/4000.0)));
  1425   00F43A  0E03               	movlw	3
  1426   00F43C  6E46               	movwf	(??_main+1)^0,c
  1427   00F43E  0E08               	movlw	8
  1428   00F440  6E45               	movwf	??_main^0,c
  1429   00F442  0E77               	movlw	119
  1430   00F444                     u2747:
  1431   00F444  2EE8               	decfsz	wreg,f,c
  1432   00F446  D7FE               	bra	u2747
  1433   00F448  2E45               	decfsz	??_main^0,f,c
  1434   00F44A  D7FC               	bra	u2747
  1435   00F44C  2E46               	decfsz	(??_main+1)^0,f,c
  1436   00F44E  D7FA               	bra	u2747
  1437   00F450  F000               	nop	
  1438   00F452                     
  1439                           ;App.c: 40:             if (wrong_attempts>='3'||wrong_attempts_set_pass>='3'){
  1440   00F452  0E33               	movlw	51
  1441   00F454  604A               	cpfslt	_wrong_attempts^0,c
  1442   00F456  EF2F  F07A         	goto	u2671
  1443   00F45A  EF31  F07A         	goto	u2670
  1444   00F45E                     u2671:
  1445   00F45E  EF39  F07A         	goto	l4358
  1446   00F462                     u2670:
  1447   00F462  0E32               	movlw	50
  1448   00F464  6449               	cpfsgt	_wrong_attempts_set_pass^0,c
  1449   00F466  EF37  F07A         	goto	u2681
  1450   00F46A  EF39  F07A         	goto	u2680
  1451   00F46E                     u2681:
  1452   00F46E  EF67  F07A         	goto	l4378
  1453   00F472                     u2680:
  1454   00F472                     l4358:
  1455   00F472  0E4B               	movlw	low _lcd
  1456   00F474  6E14               	movwf	lcd_4bit_send_cmd@lcd^0,c
  1457   00F476  0E00               	movlw	high _lcd
  1458   00F478  6E15               	movwf	(lcd_4bit_send_cmd@lcd+1)^0,c
  1459   00F47A  0E01               	movlw	1
  1460   00F47C  6E16               	movwf	lcd_4bit_send_cmd@cmd^0,c
  1461   00F47E  ECDA  F072         	call	_lcd_4bit_send_cmd	;wreg free
  1462   00F482  0E4B               	movlw	low _lcd
  1463   00F484  6E1F               	movwf	lcd_4bit_send_string_data_pos@lcd^0,c
  1464   00F486  0E00               	movlw	high _lcd
  1465   00F488  6E20               	movwf	(lcd_4bit_send_string_data_pos@lcd+1)^0,c
  1466   00F48A  0E51               	movlw	low STR_4
  1467   00F48C  6E21               	movwf	lcd_4bit_send_string_data_pos@string^0,c
  1468   00F48E  0EFE               	movlw	high STR_4
  1469   00F490  6E22               	movwf	(lcd_4bit_send_string_data_pos@string+1)^0,c
  1470   00F492  0E01               	movlw	1
  1471   00F494  6E23               	movwf	lcd_4bit_send_string_data_pos@row^0,c
  1472   00F496  0E01               	movlw	1
  1473   00F498  6E24               	movwf	lcd_4bit_send_string_data_pos@col^0,c
  1474   00F49A  EC6A  F076         	call	_lcd_4bit_send_string_data_pos	;wreg free
  1475   00F49E  0E54               	movlw	low _red_led
  1476   00F4A0  6E0B               	movwf	Led_turn_on@led^0,c
  1477   00F4A2  0E00               	movlw	high _red_led
  1478   00F4A4  6E0C               	movwf	(Led_turn_on@led+1)^0,c
  1479   00F4A6  EC10  F074         	call	_Led_turn_on	;wreg free
  1480   00F4AA                     l4364:
  1481   00F4AA  0E53               	movlw	low _buzzer
  1482   00F4AC  6E0B               	movwf	buzzer_turn_on@buzzer_obj^0,c
  1483   00F4AE  0E00               	movlw	high _buzzer
  1484   00F4B0  6E0C               	movwf	(buzzer_turn_on@buzzer_obj+1)^0,c
  1485   00F4B2  EC92  F074         	call	_buzzer_turn_on	;wreg free
  1486   00F4B6  EF55  F07A         	goto	l4364
  1487   00F4BA                     l4368:
  1488   00F4BA  EC86  F07A         	call	_open_the_safe_program	;wreg free
  1489   00F4BE                     l4370:
  1490                           
  1491                           ;App.c: 52:                     choossed_program=0;
  1492   00F4BE  0E00               	movlw	0
  1493   00F4C0  6E48               	movwf	main@choossed_program^0,c
  1494                           
  1495                           ;App.c: 53:                     break;
  1496   00F4C2  EF7C  F07A         	goto	l4380
  1497   00F4C6                     l4372:
  1498   00F4C6  EC99  F070         	call	_change_the_password_program	;wreg free
  1499   00F4CA  EF5F  F07A         	goto	l4370
  1500   00F4CE                     l4378:
  1501   00F4CE  5048               	movf	main@choossed_program^0,w,c
  1502   00F4D0  6E45               	movwf	??_main^0,c
  1503   00F4D2  6A46               	clrf	(??_main+1)^0,c
  1504                           
  1505                           ; Switch on 2 bytes has been partitioned into a top level switch of size 1, and 1 sub-sw
      +                          itches
  1506                           ; Switch size 1, requested type "simple"
  1507                           ; Number of cases is 1, Range of values is 0 to 0
  1508                           ; switch strategies available:
  1509                           ; Name         Instructions Cycles
  1510                           ; simple_byte            4     3 (average)
  1511                           ;	Chosen strategy is simple_byte
  1512   00F4D4  5046               	movf	(??_main+1)^0,w,c
  1513   00F4D6  0A00               	xorlw	0	; case 0
  1514   00F4D8  B4D8               	btfsc	status,2,c
  1515   00F4DA  EF71  F07A         	goto	l4448
  1516   00F4DE  EF7C  F07A         	goto	l4380
  1517   00F4E2                     l4448:
  1518                           
  1519                           ; Switch size 1, requested type "simple"
  1520                           ; Number of cases is 2, Range of values is 49 to 50
  1521                           ; switch strategies available:
  1522                           ; Name         Instructions Cycles
  1523                           ; simple_byte            7     4 (average)
  1524                           ;	Chosen strategy is simple_byte
  1525   00F4E2  5045               	movf	??_main^0,w,c
  1526   00F4E4  0A31               	xorlw	49	; case 49
  1527   00F4E6  B4D8               	btfsc	status,2,c
  1528   00F4E8  EF5D  F07A         	goto	l4368
  1529   00F4EC  0A03               	xorlw	3	; case 50
  1530   00F4EE  B4D8               	btfsc	status,2,c
  1531   00F4F0  EF63  F07A         	goto	l4372
  1532   00F4F4  EF7C  F07A         	goto	l4380
  1533   00F4F8                     l4380:
  1534   00F4F8  0E92               	movlw	low _Password
  1535   00F4FA  6E01               	movwf	clear_the_entered_password@_password^0,c
  1536   00F4FC  0E00               	movlw	high _Password
  1537   00F4FE  6E02               	movwf	(clear_the_entered_password@_password+1)^0,c
  1538   00F500  ECBD  F070         	call	_clear_the_entered_password	;wreg free
  1539   00F504  EFF0  F079         	goto	l4340
  1540   00F508  EF00  F000         	goto	start
  1541   00F50C                     __end_of_main:
  1542                           	callstack 0
  1543                           
  1544 ;; *************** function _set_passowrd_frist_time *****************
  1545 ;; Defined at:
  1546 ;;		line 326 in file "App.c"
  1547 ;; Parameters:    Size  Location     Type
  1548 ;;		None
  1549 ;; Auto vars:     Size  Location     Type
  1550 ;;  Temp_Passwor   10   55[COMRAM] unsigned char [10]
  1551 ;;  Temp_Passwor   10   45[COMRAM] unsigned char [10]
  1552 ;;  ret             1   66[COMRAM] unsigned char 
  1553 ;;  pressed_key     1   65[COMRAM] unsigned char 
  1554 ;; Return value:  Size  Location     Type
  1555 ;;                  1    wreg      unsigned char 
  1556 ;; Registers used:
  1557 ;;		wreg, fsr1l, fsr1h, fsr2l, fsr2h, status,2, status,0, tblptrl, tblptrh, tblptru, prodl, prodh, cstack
  1558 ;; Tracked objects:
  1559 ;;		On entry : 0/0
  1560 ;;		On exit  : 0/0
  1561 ;;		Unchanged: 0/0
  1562 ;; Data sizes:     COMRAM   BANK0   BANK1   BANK2   BANK3   BANK4   BANK5   BANK6   BANK7   BANK8   BANK9  BANK10  BANK1
      +1  BANK12  BANK13  BANK14  BANK15
  1563 ;;      Params:         0       0       0       0       0       0       0       0       0       0       0       0       
      +0       0       0       0       0
  1564 ;;      Locals:        22       0       0       0       0       0       0       0       0       0       0       0       
      +0       0       0       0       0
  1565 ;;      Temps:          2       0       0       0       0       0       0       0       0       0       0       0       
      +0       0       0       0       0
  1566 ;;      Totals:        24       0       0       0       0       0       0       0       0       0       0       0       
      +0       0       0       0       0
  1567 ;;Total ram usage:       24 bytes
  1568 ;; Hardware stack levels used: 1
  1569 ;; Hardware stack levels required when called: 6
  1570 ;; This function calls:
  1571 ;;		_EEPROM_WRITE_BYTE
  1572 ;;		_Led_turn_off
  1573 ;;		_Led_turn_on
  1574 ;;		_buzzer_turn_off
  1575 ;;		_buzzer_turn_on
  1576 ;;		_clear_password_from_eeprom
  1577 ;;		_enter_your_password
  1578 ;;		_lcd_4bit_send_char_data_pos
  1579 ;;		_lcd_4bit_send_cmd
  1580 ;;		_lcd_4bit_send_string_data_pos
  1581 ;;		_read_keypad
  1582 ;;		_strcmp
  1583 ;;		_try_again_after_5_sec
  1584 ;;		_write_the_password_in_eeprom
  1585 ;; This function is called by:
  1586 ;;		_main
  1587 ;; This function uses a non-reentrant model
  1588 ;;
  1589                           
  1590                           	psect	text1
  1591   00F9A0                     __ptext1:
  1592                           	callstack 0
  1593   00F9A0                     _set_passowrd_frist_time:
  1594                           	callstack 24
  1595   00F9A0                     
  1596                           ;App.c: 328:     uint8 pressed_key = 0;
  1597   00F9A0  0E00               	movlw	0
  1598   00F9A2  6E42               	movwf	set_passowrd_frist_time@pressed_key^0,c
  1599   00F9A4                     
  1600                           ;App.c: 329:     uint8 Temp_Password_1[10]={0};
  1601   00F9A4  EE20  F038         	lfsr	2,set_passowrd_frist_time@Temp_Password_1
  1602   00F9A8  0E09               	movlw	9
  1603   00F9AA                     u2121:
  1604   00F9AA  6ADE               	clrf	postinc2,c
  1605   00F9AC  06E8               	decf	wreg,f,c
  1606   00F9AE  E2FD               	bc	u2121
  1607   00F9B0                     
  1608                           ;App.c: 330:     uint8 Temp_Password_2[10]={0};
  1609   00F9B0  EE20  F02E         	lfsr	2,set_passowrd_frist_time@Temp_Password_2
  1610   00F9B4  0E09               	movlw	9
  1611   00F9B6                     u2131:
  1612   00F9B6  6ADE               	clrf	postinc2,c
  1613   00F9B8  06E8               	decf	wreg,f,c
  1614   00F9BA  E2FD               	bc	u2131
  1615   00F9BC  0E4B               	movlw	low _lcd
  1616   00F9BE  6E14               	movwf	lcd_4bit_send_cmd@lcd^0,c
  1617   00F9C0  0E00               	movlw	high _lcd
  1618   00F9C2  6E15               	movwf	(lcd_4bit_send_cmd@lcd+1)^0,c
  1619   00F9C4  0E01               	movlw	1
  1620   00F9C6  6E16               	movwf	lcd_4bit_send_cmd@cmd^0,c
  1621   00F9C8  ECDA  F072         	call	_lcd_4bit_send_cmd	;wreg free
  1622   00F9CC  0E4B               	movlw	low _lcd
  1623   00F9CE  6E1F               	movwf	lcd_4bit_send_string_data_pos@lcd^0,c
  1624   00F9D0  0E00               	movlw	high _lcd
  1625   00F9D2  6E20               	movwf	(lcd_4bit_send_string_data_pos@lcd+1)^0,c
  1626   00F9D4  0EA1               	movlw	low STR_19
  1627   00F9D6  6E21               	movwf	lcd_4bit_send_string_data_pos@string^0,c
  1628   00F9D8  0EFE               	movlw	high STR_19
  1629   00F9DA  6E22               	movwf	(lcd_4bit_send_string_data_pos@string+1)^0,c
  1630   00F9DC  0E01               	movlw	1
  1631   00F9DE  6E23               	movwf	lcd_4bit_send_string_data_pos@row^0,c
  1632   00F9E0  0E01               	movlw	1
  1633   00F9E2  6E24               	movwf	lcd_4bit_send_string_data_pos@col^0,c
  1634   00F9E4  EC6A  F076         	call	_lcd_4bit_send_string_data_pos	;wreg free
  1635   00F9E8                     
  1636                           ;App.c: 334:     ret = clear_password_from_eeprom(password_digits_counter);
  1637   00F9E8  5056               	movf	_password_digits_counter^0,w,c
  1638   00F9EA  ECA5  F070         	call	_clear_password_from_eeprom
  1639   00F9EE  6E43               	movwf	set_passowrd_frist_time@ret^0,c
  1640   00F9F0                     
  1641                           ;App.c: 336:     password_digits_counter=0;
  1642   00F9F0  0E00               	movlw	0
  1643   00F9F2  6E56               	movwf	_password_digits_counter^0,c
  1644                           
  1645                           ;App.c: 337:     while(password_digits_counter <= 10){
  1646   00F9F4  EF01  F07F         	goto	l3884
  1647   00F9F8                     l3778:
  1648                           
  1649                           ;App.c: 339:         pressed_key = '\0';
  1650   00F9F8  0E00               	movlw	0
  1651   00F9FA  6E42               	movwf	set_passowrd_frist_time@pressed_key^0,c
  1652                           
  1653                           ;App.c: 341:         while('\0'==pressed_key){
  1654   00F9FC  EF0B  F07D         	goto	l3782
  1655   00FA00                     l3780:
  1656                           
  1657                           ;App.c: 342:             ret = read_keypad(&keypad,&pressed_key);
  1658   00FA00  0E9C               	movlw	low _keypad
  1659   00FA02  6E0B               	movwf	read_keypad@keypad^0,c
  1660   00FA04  0E00               	movlw	high _keypad
  1661   00FA06  6E0C               	movwf	(read_keypad@keypad+1)^0,c
  1662   00FA08  0E42               	movlw	low set_passowrd_frist_time@pressed_key
  1663   00FA0A  6E0D               	movwf	read_keypad@value^0,c
  1664   00FA0C  0E00               	movlw	high set_passowrd_frist_time@pressed_key
  1665   00FA0E  6E0E               	movwf	(read_keypad@value+1)^0,c
  1666   00FA10  ECCF  F078         	call	_read_keypad	;wreg free
  1667   00FA14  6E43               	movwf	set_passowrd_frist_time@ret^0,c
  1668   00FA16                     l3782:
  1669                           
  1670                           ;App.c: 341:         while('\0'==pressed_key){
  1671   00FA16  5042               	movf	set_passowrd_frist_time@pressed_key^0,w,c
  1672   00FA18  B4D8               	btfsc	status,2,c
  1673   00FA1A  EF11  F07D         	goto	u2141
  1674   00FA1E  EF13  F07D         	goto	u2140
  1675   00FA22                     u2141:
  1676   00FA22  EF00  F07D         	goto	l3780
  1677   00FA26                     u2140:
  1678   00FA26                     
  1679                           ;App.c: 345:         if (10 == password_digits_counter){
  1680   00FA26  0E0A               	movlw	10
  1681   00FA28  1856               	xorwf	_password_digits_counter^0,w,c
  1682   00FA2A  A4D8               	btfss	status,2,c
  1683   00FA2C  EF1A  F07D         	goto	u2151
  1684   00FA30  EF1C  F07D         	goto	u2150
  1685   00FA34                     u2151:
  1686   00FA34  EF7C  F07D         	goto	l3806
  1687   00FA38                     u2150:
  1688   00FA38                     
  1689                           ;App.c: 346:             ret = lcd_4bit_send_cmd(&lcd,0b00000001);
  1690   00FA38  0E4B               	movlw	low _lcd
  1691   00FA3A  6E14               	movwf	lcd_4bit_send_cmd@lcd^0,c
  1692   00FA3C  0E00               	movlw	high _lcd
  1693   00FA3E  6E15               	movwf	(lcd_4bit_send_cmd@lcd+1)^0,c
  1694   00FA40  0E01               	movlw	1
  1695   00FA42  6E16               	movwf	lcd_4bit_send_cmd@cmd^0,c
  1696   00FA44  ECDA  F072         	call	_lcd_4bit_send_cmd	;wreg free
  1697   00FA48  6E43               	movwf	set_passowrd_frist_time@ret^0,c
  1698                           
  1699                           ;App.c: 347:             ret = Led_turn_on(&red_led);
  1700   00FA4A  0E54               	movlw	low _red_led
  1701   00FA4C  6E0B               	movwf	Led_turn_on@led^0,c
  1702   00FA4E  0E00               	movlw	high _red_led
  1703   00FA50  6E0C               	movwf	(Led_turn_on@led+1)^0,c
  1704   00FA52  EC10  F074         	call	_Led_turn_on	;wreg free
  1705   00FA56  6E43               	movwf	set_passowrd_frist_time@ret^0,c
  1706                           
  1707                           ;App.c: 348:             ret = buzzer_turn_on(&buzzer);
  1708   00FA58  0E53               	movlw	low _buzzer
  1709   00FA5A  6E0B               	movwf	buzzer_turn_on@buzzer_obj^0,c
  1710   00FA5C  0E00               	movlw	high _buzzer
  1711   00FA5E  6E0C               	movwf	(buzzer_turn_on@buzzer_obj+1)^0,c
  1712   00FA60  EC92  F074         	call	_buzzer_turn_on	;wreg free
  1713   00FA64  6E43               	movwf	set_passowrd_frist_time@ret^0,c
  1714   00FA66  0E4B               	movlw	low _lcd
  1715   00FA68  6E1F               	movwf	lcd_4bit_send_string_data_pos@lcd^0,c
  1716   00FA6A  0E00               	movlw	high _lcd
  1717   00FA6C  6E20               	movwf	(lcd_4bit_send_string_data_pos@lcd+1)^0,c
  1718   00FA6E  0EA0               	movlw	low STR_20
  1719   00FA70  6E21               	movwf	lcd_4bit_send_string_data_pos@string^0,c
  1720   00FA72  0EFF               	movlw	high STR_20
  1721   00FA74  6E22               	movwf	(lcd_4bit_send_string_data_pos@string+1)^0,c
  1722   00FA76  0E01               	movlw	1
  1723   00FA78  6E23               	movwf	lcd_4bit_send_string_data_pos@row^0,c
  1724   00FA7A  0E01               	movlw	1
  1725   00FA7C  6E24               	movwf	lcd_4bit_send_string_data_pos@col^0,c
  1726   00FA7E  EC6A  F076         	call	_lcd_4bit_send_string_data_pos	;wreg free
  1727   00FA82  0E4B               	movlw	low _lcd
  1728   00FA84  6E1F               	movwf	lcd_4bit_send_string_data_pos@lcd^0,c
  1729   00FA86  0E00               	movlw	high _lcd
  1730   00FA88  6E20               	movwf	(lcd_4bit_send_string_data_pos@lcd+1)^0,c
  1731   00FA8A  0E26               	movlw	low STR_21
  1732   00FA8C  6E21               	movwf	lcd_4bit_send_string_data_pos@string^0,c
  1733   00FA8E  0EFF               	movlw	high STR_21
  1734   00FA90  6E22               	movwf	(lcd_4bit_send_string_data_pos@string+1)^0,c
  1735   00FA92  0E02               	movlw	2
  1736   00FA94  6E23               	movwf	lcd_4bit_send_string_data_pos@row^0,c
  1737   00FA96  0E01               	movlw	1
  1738   00FA98  6E24               	movwf	lcd_4bit_send_string_data_pos@col^0,c
  1739   00FA9A  EC6A  F076         	call	_lcd_4bit_send_string_data_pos	;wreg free
  1740   00FA9E  0E4B               	movlw	low _lcd
  1741   00FAA0  6E1F               	movwf	lcd_4bit_send_string_data_pos@lcd^0,c
  1742   00FAA2  0E00               	movlw	high _lcd
  1743   00FAA4  6E20               	movwf	(lcd_4bit_send_string_data_pos@lcd+1)^0,c
  1744   00FAA6  0E6F               	movlw	low STR_22
  1745   00FAA8  6E21               	movwf	lcd_4bit_send_string_data_pos@string^0,c
  1746   00FAAA  0EFF               	movlw	high STR_22
  1747   00FAAC  6E22               	movwf	(lcd_4bit_send_string_data_pos@string+1)^0,c
  1748   00FAAE  0E04               	movlw	4
  1749   00FAB0  6E23               	movwf	lcd_4bit_send_string_data_pos@row^0,c
  1750   00FAB2  0E01               	movlw	1
  1751   00FAB4  6E24               	movwf	lcd_4bit_send_string_data_pos@col^0,c
  1752   00FAB6  EC6A  F076         	call	_lcd_4bit_send_string_data_pos	;wreg free
  1753   00FABA                     
  1754                           ;App.c: 352:             _delay((unsigned long)((2000)*(8000000/4000.0)));
  1755   00FABA  0E15               	movlw	21
  1756   00FABC  6E2D               	movwf	(??_set_passowrd_frist_time+1)^0,c
  1757   00FABE  0E4B               	movlw	75
  1758   00FAC0  6E2C               	movwf	??_set_passowrd_frist_time^0,c
  1759   00FAC2  0EBE               	movlw	190
  1760   00FAC4                     u2757:
  1761   00FAC4  2EE8               	decfsz	wreg,f,c
  1762   00FAC6  D7FE               	bra	u2757
  1763   00FAC8  2E2C               	decfsz	??_set_passowrd_frist_time^0,f,c
  1764   00FACA  D7FC               	bra	u2757
  1765   00FACC  2E2D               	decfsz	(??_set_passowrd_frist_time+1)^0,f,c
  1766   00FACE  D7FA               	bra	u2757
  1767   00FAD0  F000 F000          	nop2	
  1768   00FAD4  0E54               	movlw	low _red_led
  1769   00FAD6  6E0B               	movwf	Led_turn_off@led^0,c
  1770   00FAD8  0E00               	movlw	high _red_led
  1771   00FADA  6E0C               	movwf	(Led_turn_off@led+1)^0,c
  1772   00FADC  ECCF  F073         	call	_Led_turn_off	;wreg free
  1773   00FAE0  0E53               	movlw	low _buzzer
  1774   00FAE2  6E0B               	movwf	buzzer_turn_off@buzzer_obj^0,c
  1775   00FAE4  0E00               	movlw	high _buzzer
  1776   00FAE6  6E0C               	movwf	(buzzer_turn_off@buzzer_obj+1)^0,c
  1777   00FAE8  EC51  F074         	call	_buzzer_turn_off	;wreg free
  1778   00FAEC  ECBD  F077         	call	_try_again_after_5_sec	;wreg free
  1779   00FAF0                     
  1780                           ;App.c: 356:             ret = (STD_ReturnType)0x00;
  1781   00FAF0  0E00               	movlw	0
  1782   00FAF2  6E43               	movwf	set_passowrd_frist_time@ret^0,c
  1783                           
  1784                           ;App.c: 357:             break;
  1785   00FAF4  EF09  F07F         	goto	l3886
  1786   00FAF8                     l3806:
  1787   00FAF8  0E23               	movlw	35
  1788   00FAFA  1842               	xorwf	set_passowrd_frist_time@pressed_key^0,w,c
  1789   00FAFC  B4D8               	btfsc	status,2,c
  1790   00FAFE  EF83  F07D         	goto	u2161
  1791   00FB02  EF85  F07D         	goto	u2160
  1792   00FB06                     u2161:
  1793   00FB06  EFA9  F07D         	goto	l3816
  1794   00FB0A                     u2160:
  1795   00FB0A                     
  1796                           ;App.c: 361:             Temp_Password_1[password_digits_counter]=pressed_key;
  1797   00FB0A  0E38               	movlw	low set_passowrd_frist_time@Temp_Password_1
  1798   00FB0C  2456               	addwf	_password_digits_counter^0,w,c
  1799   00FB0E  6ED9               	movwf	fsr2l,c
  1800   00FB10  6ADA               	clrf	fsr2h,c
  1801   00FB12  0E00               	movlw	high set_passowrd_frist_time@Temp_Password_1
  1802   00FB14  22DA               	addwfc	fsr2h,f,c
  1803   00FB16  C042  FFDF         	movff	set_passowrd_frist_time@pressed_key,indf2
  1804   00FB1A                     
  1805                           ;App.c: 362:             ret = lcd_4bit_send_char_data_pos(&lcd,'*',2,1+password_digits_
      +                          counter);
  1806   00FB1A  0E4B               	movlw	low _lcd
  1807   00FB1C  6E1F               	movwf	lcd_4bit_send_char_data_pos@lcd^0,c
  1808   00FB1E  0E00               	movlw	high _lcd
  1809   00FB20  6E20               	movwf	(lcd_4bit_send_char_data_pos@lcd+1)^0,c
  1810   00FB22  0E2A               	movlw	42
  1811   00FB24  6E21               	movwf	lcd_4bit_send_char_data_pos@data^0,c
  1812   00FB26  0E02               	movlw	2
  1813   00FB28  6E22               	movwf	lcd_4bit_send_char_data_pos@row^0,c
  1814   00FB2A  2856               	incf	_password_digits_counter^0,w,c
  1815   00FB2C  6E23               	movwf	lcd_4bit_send_char_data_pos@col^0,c
  1816   00FB2E  ECD3  F074         	call	_lcd_4bit_send_char_data_pos	;wreg free
  1817   00FB32  6E43               	movwf	set_passowrd_frist_time@ret^0,c
  1818   00FB34                     
  1819                           ;App.c: 363:             password_digits_counter++;
  1820   00FB34  2A56               	incf	_password_digits_counter^0,f,c
  1821   00FB36                     
  1822                           ;App.c: 364:             _delay((unsigned long)((200)*(8000000/4000.0)));
  1823   00FB36  0E03               	movlw	3
  1824   00FB38  6E2D               	movwf	(??_set_passowrd_frist_time+1)^0,c
  1825   00FB3A  0E08               	movlw	8
  1826   00FB3C  6E2C               	movwf	??_set_passowrd_frist_time^0,c
  1827   00FB3E  0E77               	movlw	119
  1828   00FB40                     u2767:
  1829   00FB40  2EE8               	decfsz	wreg,f,c
  1830   00FB42  D7FE               	bra	u2767
  1831   00FB44  2E2C               	decfsz	??_set_passowrd_frist_time^0,f,c
  1832   00FB46  D7FC               	bra	u2767
  1833   00FB48  2E2D               	decfsz	(??_set_passowrd_frist_time+1)^0,f,c
  1834   00FB4A  D7FA               	bra	u2767
  1835   00FB4C  F000               	nop	
  1836                           
  1837                           ;App.c: 365:         }
  1838   00FB4E  EF01  F07F         	goto	l3884
  1839   00FB52                     l3816:
  1840   00FB52  0E23               	movlw	35
  1841   00FB54  1842               	xorwf	set_passowrd_frist_time@pressed_key^0,w,c
  1842   00FB56  A4D8               	btfss	status,2,c
  1843   00FB58  EFB0  F07D         	goto	u2171
  1844   00FB5C  EFB2  F07D         	goto	u2170
  1845   00FB60                     u2171:
  1846   00FB60  EF01  F07F         	goto	l668
  1847   00FB64                     u2170:
  1848   00FB64                     
  1849                           ;App.c: 368:             if (password_digits_counter>=4){
  1850   00FB64  0E03               	movlw	3
  1851   00FB66  6456               	cpfsgt	_password_digits_counter^0,c
  1852   00FB68  EFB8  F07D         	goto	u2181
  1853   00FB6C  EFBA  F07D         	goto	u2180
  1854   00FB70                     u2181:
  1855   00FB70  EFA5  F07E         	goto	l3866
  1856   00FB74                     u2180:
  1857   00FB74  0E4B               	movlw	low _lcd
  1858   00FB76  6E14               	movwf	lcd_4bit_send_cmd@lcd^0,c
  1859   00FB78  0E00               	movlw	high _lcd
  1860   00FB7A  6E15               	movwf	(lcd_4bit_send_cmd@lcd+1)^0,c
  1861   00FB7C  0E01               	movlw	1
  1862   00FB7E  6E16               	movwf	lcd_4bit_send_cmd@cmd^0,c
  1863   00FB80  ECDA  F072         	call	_lcd_4bit_send_cmd	;wreg free
  1864   00FB84  0E4B               	movlw	low _lcd
  1865   00FB86  6E1F               	movwf	lcd_4bit_send_string_data_pos@lcd^0,c
  1866   00FB88  0E00               	movlw	high _lcd
  1867   00FB8A  6E20               	movwf	(lcd_4bit_send_string_data_pos@lcd+1)^0,c
  1868   00FB8C  0E65               	movlw	low STR_23
  1869   00FB8E  6E21               	movwf	lcd_4bit_send_string_data_pos@string^0,c
  1870   00FB90  0EFE               	movlw	high STR_23
  1871   00FB92  6E22               	movwf	(lcd_4bit_send_string_data_pos@string+1)^0,c
  1872   00FB94  0E01               	movlw	1
  1873   00FB96  6E23               	movwf	lcd_4bit_send_string_data_pos@row^0,c
  1874   00FB98  0E01               	movlw	1
  1875   00FB9A  6E24               	movwf	lcd_4bit_send_string_data_pos@col^0,c
  1876   00FB9C  EC6A  F076         	call	_lcd_4bit_send_string_data_pos	;wreg free
  1877   00FBA0                     
  1878                           ;App.c: 371:                 _delay((unsigned long)((200)*(8000000/4000.0)));
  1879   00FBA0  0E03               	movlw	3
  1880   00FBA2  6E2D               	movwf	(??_set_passowrd_frist_time+1)^0,c
  1881   00FBA4  0E08               	movlw	8
  1882   00FBA6  6E2C               	movwf	??_set_passowrd_frist_time^0,c
  1883   00FBA8  0E77               	movlw	119
  1884   00FBAA                     u2777:
  1885   00FBAA  2EE8               	decfsz	wreg,f,c
  1886   00FBAC  D7FE               	bra	u2777
  1887   00FBAE  2E2C               	decfsz	??_set_passowrd_frist_time^0,f,c
  1888   00FBB0  D7FC               	bra	u2777
  1889   00FBB2  2E2D               	decfsz	(??_set_passowrd_frist_time+1)^0,f,c
  1890   00FBB4  D7FA               	bra	u2777
  1891   00FBB6  F000               	nop	
  1892   00FBB8  0E2E               	movlw	low set_passowrd_frist_time@Temp_Password_2
  1893   00FBBA  6E25               	movwf	enter_your_password@_password^0,c
  1894   00FBBC  0E00               	movlw	high set_passowrd_frist_time@Temp_Password_2
  1895   00FBBE  6E26               	movwf	(enter_your_password@_password+1)^0,c
  1896   00FBC0  ECCC  F076         	call	_enter_your_password	;wreg free
  1897   00FBC4                     
  1898                           ;App.c: 373:                 ret = strcmp(Temp_Password_1,Temp_Password_2);
  1899   00FBC4  0E38               	movlw	low set_passowrd_frist_time@Temp_Password_1
  1900   00FBC6  6E01               	movwf	strcmp@l^0,c
  1901   00FBC8  0E00               	movlw	high set_passowrd_frist_time@Temp_Password_1
  1902   00FBCA  6E02               	movwf	(strcmp@l+1)^0,c
  1903   00FBCC  0E2E               	movlw	low set_passowrd_frist_time@Temp_Password_2
  1904   00FBCE  6E03               	movwf	strcmp@r^0,c
  1905   00FBD0  0E00               	movlw	high set_passowrd_frist_time@Temp_Password_2
  1906   00FBD2  6E04               	movwf	(strcmp@r+1)^0,c
  1907   00FBD4  EC6A  F072         	call	_strcmp	;wreg free
  1908   00FBD8  5001               	movf	?_strcmp^0,w,c
  1909   00FBDA  6E43               	movwf	set_passowrd_frist_time@ret^0,c
  1910   00FBDC                     
  1911                           ;App.c: 374:                 if (0==ret){
  1912   00FBDC  5043               	movf	set_passowrd_frist_time@ret^0,w,c
  1913   00FBDE  A4D8               	btfss	status,2,c
  1914   00FBE0  EFF4  F07D         	goto	u2191
  1915   00FBE4  EFF6  F07D         	goto	u2190
  1916   00FBE8                     u2191:
  1917   00FBE8  EF54  F07E         	goto	l3852
  1918   00FBEC                     u2190:
  1919   00FBEC  0E4B               	movlw	low _lcd
  1920   00FBEE  6E14               	movwf	lcd_4bit_send_cmd@lcd^0,c
  1921   00FBF0  0E00               	movlw	high _lcd
  1922   00FBF2  6E15               	movwf	(lcd_4bit_send_cmd@lcd+1)^0,c
  1923   00FBF4  0E01               	movlw	1
  1924   00FBF6  6E16               	movwf	lcd_4bit_send_cmd@cmd^0,c
  1925   00FBF8  ECDA  F072         	call	_lcd_4bit_send_cmd	;wreg free
  1926   00FBFC                     
  1927                           ;App.c: 376:                     ret = write_the_password_in_eeprom(Temp_Password_1,pass
      +                          word_digits_counter);
  1928   00FBFC  0E38               	movlw	low set_passowrd_frist_time@Temp_Password_1
  1929   00FBFE  6E05               	movwf	write_the_password_in_eeprom@password^0,c
  1930   00FC00  0E00               	movlw	high set_passowrd_frist_time@Temp_Password_1
  1931   00FC02  6E06               	movwf	(write_the_password_in_eeprom@password+1)^0,c
  1932   00FC04  C056  F007         	movff	_password_digits_counter,write_the_password_in_eeprom@password_length
  1933   00FC08  EC0C  F072         	call	_write_the_password_in_eeprom	;wreg free
  1934   00FC0C  6E43               	movwf	set_passowrd_frist_time@ret^0,c
  1935   00FC0E                     
  1936                           ;App.c: 377:                     if ((STD_ReturnType)0x01 == ret){
  1937   00FC0E  0443               	decf	set_passowrd_frist_time@ret^0,w,c
  1938   00FC10  A4D8               	btfss	status,2,c
  1939   00FC12  EF0D  F07E         	goto	u2201
  1940   00FC16  EF0F  F07E         	goto	u2200
  1941   00FC1A                     u2201:
  1942   00FC1A  EFFF  F07E         	goto	l676
  1943   00FC1E                     u2200:
  1944   00FC1E  0E55               	movlw	low _green_led
  1945   00FC20  6E0B               	movwf	Led_turn_on@led^0,c
  1946   00FC22  0E00               	movlw	high _green_led
  1947   00FC24  6E0C               	movwf	(Led_turn_on@led+1)^0,c
  1948   00FC26  EC10  F074         	call	_Led_turn_on	;wreg free
  1949   00FC2A  0E4B               	movlw	low _lcd
  1950   00FC2C  6E1F               	movwf	lcd_4bit_send_string_data_pos@lcd^0,c
  1951   00FC2E  0E00               	movlw	high _lcd
  1952   00FC30  6E20               	movwf	(lcd_4bit_send_string_data_pos@lcd+1)^0,c
  1953   00FC32  0EC0               	movlw	low STR_12
  1954   00FC34  6E21               	movwf	lcd_4bit_send_string_data_pos@string^0,c
  1955   00FC36  0EFF               	movlw	high STR_12
  1956   00FC38  6E22               	movwf	(lcd_4bit_send_string_data_pos@string+1)^0,c
  1957   00FC3A  0E01               	movlw	1
  1958   00FC3C  6E23               	movwf	lcd_4bit_send_string_data_pos@row^0,c
  1959   00FC3E  0E01               	movlw	1
  1960   00FC40  6E24               	movwf	lcd_4bit_send_string_data_pos@col^0,c
  1961   00FC42  EC6A  F076         	call	_lcd_4bit_send_string_data_pos	;wreg free
  1962   00FC46  0E4B               	movlw	low _lcd
  1963   00FC48  6E1F               	movwf	lcd_4bit_send_string_data_pos@lcd^0,c
  1964   00FC4A  0E00               	movlw	high _lcd
  1965   00FC4C  6E20               	movwf	(lcd_4bit_send_string_data_pos@lcd+1)^0,c
  1966   00FC4E  0ECD               	movlw	low STR_13
  1967   00FC50  6E21               	movwf	lcd_4bit_send_string_data_pos@string^0,c
  1968   00FC52  0EFF               	movlw	high STR_13
  1969   00FC54  6E22               	movwf	(lcd_4bit_send_string_data_pos@string+1)^0,c
  1970   00FC56  0E02               	movlw	2
  1971   00FC58  6E23               	movwf	lcd_4bit_send_string_data_pos@row^0,c
  1972   00FC5A  0E01               	movlw	1
  1973   00FC5C  6E24               	movwf	lcd_4bit_send_string_data_pos@col^0,c
  1974   00FC5E  EC6A  F076         	call	_lcd_4bit_send_string_data_pos	;wreg free
  1975   00FC62  0E03               	movlw	3
  1976   00FC64  6E02               	movwf	(EEPROM_WRITE_BYTE@bAdd+1)^0,c
  1977   00FC66  6801               	setf	EEPROM_WRITE_BYTE@bAdd^0,c
  1978   00FC68  0E00               	movlw	0
  1979   00FC6A  6E03               	movwf	EEPROM_WRITE_BYTE@data^0,c
  1980   00FC6C  ECC0  F071         	call	_EEPROM_WRITE_BYTE	;wreg free
  1981   00FC70                     
  1982                           ;App.c: 382:                         _delay((unsigned long)((1000)*(8000000/4000.0)));
  1983   00FC70  0E0B               	movlw	11
  1984   00FC72  6E2D               	movwf	(??_set_passowrd_frist_time+1)^0,c
  1985   00FC74  0E26               	movlw	38
  1986   00FC76  6E2C               	movwf	??_set_passowrd_frist_time^0,c
  1987   00FC78  0E5E               	movlw	94
  1988   00FC7A                     u2787:
  1989   00FC7A  2EE8               	decfsz	wreg,f,c
  1990   00FC7C  D7FE               	bra	u2787
  1991   00FC7E  2E2C               	decfsz	??_set_passowrd_frist_time^0,f,c
  1992   00FC80  D7FC               	bra	u2787
  1993   00FC82  2E2D               	decfsz	(??_set_passowrd_frist_time+1)^0,f,c
  1994   00FC84  D7FA               	bra	u2787
  1995   00FC86  0E4B               	movlw	low _lcd
  1996   00FC88  6E14               	movwf	lcd_4bit_send_cmd@lcd^0,c
  1997   00FC8A  0E00               	movlw	high _lcd
  1998   00FC8C  6E15               	movwf	(lcd_4bit_send_cmd@lcd+1)^0,c
  1999   00FC8E  0E01               	movlw	1
  2000   00FC90  6E16               	movwf	lcd_4bit_send_cmd@cmd^0,c
  2001   00FC92  ECDA  F072         	call	_lcd_4bit_send_cmd	;wreg free
  2002   00FC96                     
  2003                           ;App.c: 384:                         ret = Led_turn_off(&green_led);
  2004   00FC96  0E55               	movlw	low _green_led
  2005   00FC98  6E0B               	movwf	Led_turn_off@led^0,c
  2006   00FC9A  0E00               	movlw	high _green_led
  2007   00FC9C  6E0C               	movwf	(Led_turn_off@led+1)^0,c
  2008   00FC9E  ECCF  F073         	call	_Led_turn_off	;wreg free
  2009   00FCA2  6E43               	movwf	set_passowrd_frist_time@ret^0,c
  2010   00FCA4  EF09  F07F         	goto	l3886
  2011   00FCA8                     l3852:
  2012                           
  2013                           ;App.c: 388:                     ret = lcd_4bit_send_cmd(&lcd,0b00000001);
  2014   00FCA8  0E4B               	movlw	low _lcd
  2015   00FCAA  6E14               	movwf	lcd_4bit_send_cmd@lcd^0,c
  2016   00FCAC  0E00               	movlw	high _lcd
  2017   00FCAE  6E15               	movwf	(lcd_4bit_send_cmd@lcd+1)^0,c
  2018   00FCB0  0E01               	movlw	1
  2019   00FCB2  6E16               	movwf	lcd_4bit_send_cmd@cmd^0,c
  2020   00FCB4  ECDA  F072         	call	_lcd_4bit_send_cmd	;wreg free
  2021   00FCB8  6E43               	movwf	set_passowrd_frist_time@ret^0,c
  2022                           
  2023                           ;App.c: 389:                     ret = Led_turn_on(&red_led);
  2024   00FCBA  0E54               	movlw	low _red_led
  2025   00FCBC  6E0B               	movwf	Led_turn_on@led^0,c
  2026   00FCBE  0E00               	movlw	high _red_led
  2027   00FCC0  6E0C               	movwf	(Led_turn_on@led+1)^0,c
  2028   00FCC2  EC10  F074         	call	_Led_turn_on	;wreg free
  2029   00FCC6  6E43               	movwf	set_passowrd_frist_time@ret^0,c
  2030                           
  2031                           ;App.c: 390:                     ret = buzzer_turn_on(&buzzer);
  2032   00FCC8  0E53               	movlw	low _buzzer
  2033   00FCCA  6E0B               	movwf	buzzer_turn_on@buzzer_obj^0,c
  2034   00FCCC  0E00               	movlw	high _buzzer
  2035   00FCCE  6E0C               	movwf	(buzzer_turn_on@buzzer_obj+1)^0,c
  2036   00FCD0  EC92  F074         	call	_buzzer_turn_on	;wreg free
  2037   00FCD4  6E43               	movwf	set_passowrd_frist_time@ret^0,c
  2038   00FCD6  0E4B               	movlw	low _lcd
  2039   00FCD8  6E1F               	movwf	lcd_4bit_send_string_data_pos@lcd^0,c
  2040   00FCDA  0E00               	movlw	high _lcd
  2041   00FCDC  6E20               	movwf	(lcd_4bit_send_string_data_pos@lcd+1)^0,c
  2042   00FCDE  0E5D               	movlw	low STR_26
  2043   00FCE0  6E21               	movwf	lcd_4bit_send_string_data_pos@string^0,c
  2044   00FCE2  0EFF               	movlw	high STR_26
  2045   00FCE4  6E22               	movwf	(lcd_4bit_send_string_data_pos@string+1)^0,c
  2046   00FCE6  0E01               	movlw	1
  2047   00FCE8  6E23               	movwf	lcd_4bit_send_string_data_pos@row^0,c
  2048   00FCEA  0E01               	movlw	1
  2049   00FCEC  6E24               	movwf	lcd_4bit_send_string_data_pos@col^0,c
  2050   00FCEE  EC6A  F076         	call	_lcd_4bit_send_string_data_pos	;wreg free
  2051   00FCF2  0E4B               	movlw	low _lcd
  2052   00FCF4  6E1F               	movwf	lcd_4bit_send_string_data_pos@lcd^0,c
  2053   00FCF6  0E00               	movlw	high _lcd
  2054   00FCF8  6E20               	movwf	(lcd_4bit_send_string_data_pos@lcd+1)^0,c
  2055   00FCFA  0EE3               	movlw	low STR_27
  2056   00FCFC  6E21               	movwf	lcd_4bit_send_string_data_pos@string^0,c
  2057   00FCFE  0EFF               	movlw	high STR_27
  2058   00FD00  6E22               	movwf	(lcd_4bit_send_string_data_pos@string+1)^0,c
  2059   00FD02  0E02               	movlw	2
  2060   00FD04  6E23               	movwf	lcd_4bit_send_string_data_pos@row^0,c
  2061   00FD06  0E01               	movlw	1
  2062   00FD08  6E24               	movwf	lcd_4bit_send_string_data_pos@col^0,c
  2063   00FD0A  EC6A  F076         	call	_lcd_4bit_send_string_data_pos	;wreg free
  2064   00FD0E                     l3858:
  2065                           
  2066                           ;App.c: 393:                     _delay((unsigned long)((2000)*(8000000/4000.0)));
  2067   00FD0E  0E15               	movlw	21
  2068   00FD10  6E2D               	movwf	(??_set_passowrd_frist_time+1)^0,c
  2069   00FD12  0E4B               	movlw	75
  2070   00FD14  6E2C               	movwf	??_set_passowrd_frist_time^0,c
  2071   00FD16  0EBE               	movlw	190
  2072   00FD18                     u2797:
  2073   00FD18  2EE8               	decfsz	wreg,f,c
  2074   00FD1A  D7FE               	bra	u2797
  2075   00FD1C  2E2C               	decfsz	??_set_passowrd_frist_time^0,f,c
  2076   00FD1E  D7FC               	bra	u2797
  2077   00FD20  2E2D               	decfsz	(??_set_passowrd_frist_time+1)^0,f,c
  2078   00FD22  D7FA               	bra	u2797
  2079   00FD24  F000 F000          	nop2	
  2080   00FD28  0E54               	movlw	low _red_led
  2081   00FD2A  6E0B               	movwf	Led_turn_off@led^0,c
  2082   00FD2C  0E00               	movlw	high _red_led
  2083   00FD2E  6E0C               	movwf	(Led_turn_off@led+1)^0,c
  2084   00FD30  ECCF  F073         	call	_Led_turn_off	;wreg free
  2085   00FD34  0E53               	movlw	low _buzzer
  2086   00FD36  6E0B               	movwf	buzzer_turn_off@buzzer_obj^0,c
  2087   00FD38  0E00               	movlw	high _buzzer
  2088   00FD3A  6E0C               	movwf	(buzzer_turn_off@buzzer_obj+1)^0,c
  2089   00FD3C  EC51  F074         	call	_buzzer_turn_off	;wreg free
  2090   00FD40                     
  2091                           ;App.c: 396:                     ret = try_again_after_5_sec();
  2092   00FD40  ECBD  F077         	call	_try_again_after_5_sec	;wreg free
  2093   00FD44  6E43               	movwf	set_passowrd_frist_time@ret^0,c
  2094   00FD46  EF09  F07F         	goto	l3886
  2095   00FD4A                     l3866:
  2096                           
  2097                           ;App.c: 401:                 ret = lcd_4bit_send_cmd(&lcd,0b00000001);
  2098   00FD4A  0E4B               	movlw	low _lcd
  2099   00FD4C  6E14               	movwf	lcd_4bit_send_cmd@lcd^0,c
  2100   00FD4E  0E00               	movlw	high _lcd
  2101   00FD50  6E15               	movwf	(lcd_4bit_send_cmd@lcd+1)^0,c
  2102   00FD52  0E01               	movlw	1
  2103   00FD54  6E16               	movwf	lcd_4bit_send_cmd@cmd^0,c
  2104   00FD56  ECDA  F072         	call	_lcd_4bit_send_cmd	;wreg free
  2105   00FD5A  6E43               	movwf	set_passowrd_frist_time@ret^0,c
  2106                           
  2107                           ;App.c: 402:                 ret = lcd_4bit_send_cmd(&lcd,0b00000011);
  2108   00FD5C  0E4B               	movlw	low _lcd
  2109   00FD5E  6E14               	movwf	lcd_4bit_send_cmd@lcd^0,c
  2110   00FD60  0E00               	movlw	high _lcd
  2111   00FD62  6E15               	movwf	(lcd_4bit_send_cmd@lcd+1)^0,c
  2112   00FD64  0E03               	movlw	3
  2113   00FD66  6E16               	movwf	lcd_4bit_send_cmd@cmd^0,c
  2114   00FD68  ECDA  F072         	call	_lcd_4bit_send_cmd	;wreg free
  2115   00FD6C  6E43               	movwf	set_passowrd_frist_time@ret^0,c
  2116                           
  2117                           ;App.c: 403:                 ret = Led_turn_on(&red_led);
  2118   00FD6E  0E54               	movlw	low _red_led
  2119   00FD70  6E0B               	movwf	Led_turn_on@led^0,c
  2120   00FD72  0E00               	movlw	high _red_led
  2121   00FD74  6E0C               	movwf	(Led_turn_on@led+1)^0,c
  2122   00FD76  EC10  F074         	call	_Led_turn_on	;wreg free
  2123   00FD7A  6E43               	movwf	set_passowrd_frist_time@ret^0,c
  2124                           
  2125                           ;App.c: 404:                 ret = buzzer_turn_on(&buzzer);
  2126   00FD7C  0E53               	movlw	low _buzzer
  2127   00FD7E  6E0B               	movwf	buzzer_turn_on@buzzer_obj^0,c
  2128   00FD80  0E00               	movlw	high _buzzer
  2129   00FD82  6E0C               	movwf	(buzzer_turn_on@buzzer_obj+1)^0,c
  2130   00FD84  EC92  F074         	call	_buzzer_turn_on	;wreg free
  2131   00FD88  6E43               	movwf	set_passowrd_frist_time@ret^0,c
  2132   00FD8A  0E4B               	movlw	low _lcd
  2133   00FD8C  6E1F               	movwf	lcd_4bit_send_string_data_pos@lcd^0,c
  2134   00FD8E  0E00               	movlw	high _lcd
  2135   00FD90  6E20               	movwf	(lcd_4bit_send_string_data_pos@lcd+1)^0,c
  2136   00FD92  0EB0               	movlw	low STR_28
  2137   00FD94  6E21               	movwf	lcd_4bit_send_string_data_pos@string^0,c
  2138   00FD96  0EFF               	movlw	high STR_28
  2139   00FD98  6E22               	movwf	(lcd_4bit_send_string_data_pos@string+1)^0,c
  2140   00FD9A  0E01               	movlw	1
  2141   00FD9C  6E23               	movwf	lcd_4bit_send_string_data_pos@row^0,c
  2142   00FD9E  0E01               	movlw	1
  2143   00FDA0  6E24               	movwf	lcd_4bit_send_string_data_pos@col^0,c
  2144   00FDA2  EC6A  F076         	call	_lcd_4bit_send_string_data_pos	;wreg free
  2145   00FDA6  0E4B               	movlw	low _lcd
  2146   00FDA8  6E1F               	movwf	lcd_4bit_send_string_data_pos@lcd^0,c
  2147   00FDAA  0E00               	movlw	high _lcd
  2148   00FDAC  6E20               	movwf	(lcd_4bit_send_string_data_pos@lcd+1)^0,c
  2149   00FDAE  0EF1               	movlw	low STR_29
  2150   00FDB0  6E21               	movwf	lcd_4bit_send_string_data_pos@string^0,c
  2151   00FDB2  0EFF               	movlw	high STR_29
  2152   00FDB4  6E22               	movwf	(lcd_4bit_send_string_data_pos@string+1)^0,c
  2153   00FDB6  0E02               	movlw	2
  2154   00FDB8  6E23               	movwf	lcd_4bit_send_string_data_pos@row^0,c
  2155   00FDBA  0E01               	movlw	1
  2156   00FDBC  6E24               	movwf	lcd_4bit_send_string_data_pos@col^0,c
  2157   00FDBE  EC6A  F076         	call	_lcd_4bit_send_string_data_pos	;wreg free
  2158   00FDC2  0E4B               	movlw	low _lcd
  2159   00FDC4  6E1F               	movwf	lcd_4bit_send_string_data_pos@lcd^0,c
  2160   00FDC6  0E00               	movlw	high _lcd
  2161   00FDC8  6E20               	movwf	(lcd_4bit_send_string_data_pos@lcd+1)^0,c
  2162   00FDCA  0E39               	movlw	low STR_30
  2163   00FDCC  6E21               	movwf	lcd_4bit_send_string_data_pos@string^0,c
  2164   00FDCE  0EFF               	movlw	high STR_30
  2165   00FDD0  6E22               	movwf	(lcd_4bit_send_string_data_pos@string+1)^0,c
  2166   00FDD2  0E03               	movlw	3
  2167   00FDD4  6E23               	movwf	lcd_4bit_send_string_data_pos@row^0,c
  2168   00FDD6  0E01               	movlw	1
  2169   00FDD8  6E24               	movwf	lcd_4bit_send_string_data_pos@col^0,c
  2170   00FDDA  EC6A  F076         	call	_lcd_4bit_send_string_data_pos	;wreg free
  2171   00FDDE  0E4B               	movlw	low _lcd
  2172   00FDE0  6E1F               	movwf	lcd_4bit_send_string_data_pos@lcd^0,c
  2173   00FDE2  0E00               	movlw	high _lcd
  2174   00FDE4  6E20               	movwf	(lcd_4bit_send_string_data_pos@lcd+1)^0,c
  2175   00FDE6  0EDA               	movlw	low STR_31
  2176   00FDE8  6E21               	movwf	lcd_4bit_send_string_data_pos@string^0,c
  2177   00FDEA  0EFF               	movlw	high STR_31
  2178   00FDEC  6E22               	movwf	(lcd_4bit_send_string_data_pos@string+1)^0,c
  2179   00FDEE  0E04               	movlw	4
  2180   00FDF0  6E23               	movwf	lcd_4bit_send_string_data_pos@row^0,c
  2181   00FDF2  0E01               	movlw	1
  2182   00FDF4  6E24               	movwf	lcd_4bit_send_string_data_pos@col^0,c
  2183   00FDF6  EC6A  F076         	call	_lcd_4bit_send_string_data_pos	;wreg free
  2184   00FDFA  EF87  F07E         	goto	l3858
  2185   00FDFE                     l676:
  2186                           
  2187                           ;App.c: 415:             break;
  2188   00FDFE  EF09  F07F         	goto	l3886
  2189   00FE02                     l668:
  2190   00FE02                     l3884:
  2191                           
  2192                           ;App.c: 337:     while(password_digits_counter <= 10){
  2193   00FE02  0E0A               	movlw	10
  2194   00FE04  6456               	cpfsgt	_password_digits_counter^0,c
  2195   00FE06  EF07  F07F         	goto	u2211
  2196   00FE0A  EF09  F07F         	goto	u2210
  2197   00FE0E                     u2211:
  2198   00FE0E  EFFC  F07C         	goto	l3778
  2199   00FE12                     u2210:
  2200   00FE12                     l3886:
  2201                           
  2202                           ;App.c: 420:     return ret;
  2203   00FE12  5043               	movf	set_passowrd_frist_time@ret^0,w,c
  2204   00FE14  0012               	return		;funcret
  2205   00FE16                     __end_of_set_passowrd_frist_time:
  2206                           	callstack 0
  2207                           
  2208 ;; *************** function _strcmp *****************
  2209 ;; Defined at:
  2210 ;;		line 3 in file "C:\Program Files\Microchip\xc8\v2.41\pic\sources\c99\common\strcmp.c"
  2211 ;; Parameters:    Size  Location     Type
  2212 ;;  l               2    0[COMRAM] PTR const unsigned char 
  2213 ;;		 -> set_passowrd_frist_time@Temp_Password_1(10), 
  2214 ;;  r               2    2[COMRAM] PTR const unsigned char 
  2215 ;;		 -> set_passowrd_frist_time@Temp_Password_2(10), 
  2216 ;; Auto vars:     Size  Location     Type
  2217 ;;		None
  2218 ;; Return value:  Size  Location     Type
  2219 ;;                  2    0[COMRAM] int 
  2220 ;; Registers used:
  2221 ;;		wreg, fsr1l, fsr1h, fsr2l, fsr2h, status,2, status,0
  2222 ;; Tracked objects:
  2223 ;;		On entry : 0/0
  2224 ;;		On exit  : 0/0
  2225 ;;		Unchanged: 0/0
  2226 ;; Data sizes:     COMRAM   BANK0   BANK1   BANK2   BANK3   BANK4   BANK5   BANK6   BANK7   BANK8   BANK9  BANK10  BANK1
      +1  BANK12  BANK13  BANK14  BANK15
  2227 ;;      Params:         4       0       0       0       0       0       0       0       0       0       0       0       
      +0       0       0       0       0
  2228 ;;      Locals:         0       0       0       0       0       0       0       0       0       0       0       0       
      +0       0       0       0       0
  2229 ;;      Temps:          2       0       0       0       0       0       0       0       0       0       0       0       
      +0       0       0       0       0
  2230 ;;      Totals:         6       0       0       0       0       0       0       0       0       0       0       0       
      +0       0       0       0       0
  2231 ;;Total ram usage:        6 bytes
  2232 ;; Hardware stack levels used: 1
  2233 ;; This function calls:
  2234 ;;		Nothing
  2235 ;; This function is called by:
  2236 ;;		_set_passowrd_frist_time
  2237 ;; This function uses a non-reentrant model
  2238 ;;
  2239                           
  2240                           	psect	text2
  2241   00E4D4                     __ptext2:
  2242                           	callstack 0
  2243   00E4D4                     _strcmp:
  2244                           	callstack 29
  2245   00E4D4  EF70  F072         	goto	l3694
  2246   00E4D8                     l3692:
  2247   00E4D8  4A01               	infsnz	strcmp@l^0,f,c
  2248   00E4DA  2A02               	incf	(strcmp@l+1)^0,f,c
  2249   00E4DC  4A03               	infsnz	strcmp@r^0,f,c
  2250   00E4DE  2A04               	incf	(strcmp@r+1)^0,f,c
  2251   00E4E0                     l3694:
  2252   00E4E0  C003  FFD9         	movff	strcmp@r,fsr2l
  2253   00E4E4  C004  FFDA         	movff	strcmp@r+1,fsr2h
  2254   00E4E8  C001  FFE1         	movff	strcmp@l,fsr1l
  2255   00E4EC  C002  FFE2         	movff	strcmp@l+1,fsr1h
  2256   00E4F0  50DE               	movf	postinc2,w,c
  2257   00E4F2  18E6               	xorwf	postinc1,w,c
  2258   00E4F4  A4D8               	btfss	status,2,c
  2259   00E4F6  EF7F  F072         	goto	u2061
  2260   00E4FA  EF81  F072         	goto	u2060
  2261   00E4FE                     u2061:
  2262   00E4FE  EF8D  F072         	goto	l3698
  2263   00E502                     u2060:
  2264   00E502  C001  FFD9         	movff	strcmp@l,fsr2l
  2265   00E506  C002  FFDA         	movff	strcmp@l+1,fsr2h
  2266   00E50A  50DF               	movf	indf2,w,c
  2267   00E50C  A4D8               	btfss	status,2,c
  2268   00E50E  EF8B  F072         	goto	u2071
  2269   00E512  EF8D  F072         	goto	u2070
  2270   00E516                     u2071:
  2271   00E516  EF6C  F072         	goto	l3692
  2272   00E51A                     u2070:
  2273   00E51A                     l3698:
  2274   00E51A  C001  FFD9         	movff	strcmp@l,fsr2l
  2275   00E51E  C002  FFDA         	movff	strcmp@l+1,fsr2h
  2276   00E522  50DF               	movf	indf2,w,c
  2277   00E524  6E05               	movwf	??_strcmp^0,c
  2278   00E526  C003  FFD9         	movff	strcmp@r,fsr2l
  2279   00E52A  C004  FFDA         	movff	strcmp@r+1,fsr2h
  2280   00E52E  50DF               	movf	indf2,w,c
  2281   00E530  6E06               	movwf	(??_strcmp+1)^0,c
  2282   00E532  5006               	movf	(??_strcmp+1)^0,w,c
  2283   00E534  5C05               	subwf	??_strcmp^0,w,c
  2284   00E536  6E01               	movwf	?_strcmp^0,c
  2285   00E538  6A02               	clrf	(?_strcmp+1)^0,c
  2286   00E53A  A0D8               	btfss	status,0,c
  2287   00E53C  0602               	decf	(?_strcmp+1)^0,f,c
  2288   00E53E  0012               	return		;funcret
  2289   00E540                     __end_of_strcmp:
  2290                           	callstack 0
  2291                           
  2292 ;; *************** function _open_the_safe_program *****************
  2293 ;; Defined at:
  2294 ;;		line 99 in file "App.c"
  2295 ;; Parameters:    Size  Location     Type
  2296 ;;		None
  2297 ;; Auto vars:     Size  Location     Type
  2298 ;;  ret             1   46[COMRAM] unsigned char 
  2299 ;;  compare_stat    1   45[COMRAM] unsigned char 
  2300 ;; Return value:  Size  Location     Type
  2301 ;;                  1    wreg      unsigned char 
  2302 ;; Registers used:
  2303 ;;		wreg, fsr2l, fsr2h, status,2, status,0, tblptrl, tblptrh, tblptru, prodl, prodh, cstack
  2304 ;; Tracked objects:
  2305 ;;		On entry : 0/0
  2306 ;;		On exit  : 0/0
  2307 ;;		Unchanged: 0/0
  2308 ;; Data sizes:     COMRAM   BANK0   BANK1   BANK2   BANK3   BANK4   BANK5   BANK6   BANK7   BANK8   BANK9  BANK10  BANK1
      +1  BANK12  BANK13  BANK14  BANK15
  2309 ;;      Params:         0       0       0       0       0       0       0       0       0       0       0       0       
      +0       0       0       0       0
  2310 ;;      Locals:         2       0       0       0       0       0       0       0       0       0       0       0       
      +0       0       0       0       0
  2311 ;;      Temps:          2       0       0       0       0       0       0       0       0       0       0       0       
      +0       0       0       0       0
  2312 ;;      Totals:         4       0       0       0       0       0       0       0       0       0       0       0       
      +0       0       0       0       0
  2313 ;;Total ram usage:        4 bytes
  2314 ;; Hardware stack levels used: 1
  2315 ;; Hardware stack levels required when called: 6
  2316 ;; This function calls:
  2317 ;;		_Led_turn_off
  2318 ;;		_Led_turn_on
  2319 ;;		_buzzer_turn_off
  2320 ;;		_buzzer_turn_on
  2321 ;;		_dc_motor_rotate_right
  2322 ;;		_dc_motor_stop
  2323 ;;		_enter_your_password
  2324 ;;		_lcd_4bit_send_char_data_pos
  2325 ;;		_lcd_4bit_send_cmd
  2326 ;;		_lcd_4bit_send_string_data_pos
  2327 ;;		_password_compare_with_eeprom
  2328 ;;		_try_again_after_5_sec
  2329 ;; This function is called by:
  2330 ;;		_main
  2331 ;; This function uses a non-reentrant model
  2332 ;;
  2333                           
  2334                           	psect	text3
  2335   00F50C                     __ptext3:
  2336                           	callstack 0
  2337   00F50C                     _open_the_safe_program:
  2338                           	callstack 24
  2339   00F50C                     
  2340                           ;App.c: 101:     uint8 compare_status=0;
  2341   00F50C  0E00               	movlw	0
  2342   00F50E  6E2E               	movwf	open_the_safe_program@compare_status^0,c
  2343   00F510  0E4B               	movlw	low _lcd
  2344   00F512  6E14               	movwf	lcd_4bit_send_cmd@lcd^0,c
  2345   00F514  0E00               	movlw	high _lcd
  2346   00F516  6E15               	movwf	(lcd_4bit_send_cmd@lcd+1)^0,c
  2347   00F518  0E01               	movlw	1
  2348   00F51A  6E16               	movwf	lcd_4bit_send_cmd@cmd^0,c
  2349   00F51C  ECDA  F072         	call	_lcd_4bit_send_cmd	;wreg free
  2350   00F520  0E4B               	movlw	low _lcd
  2351   00F522  6E1F               	movwf	lcd_4bit_send_string_data_pos@lcd^0,c
  2352   00F524  0E00               	movlw	high _lcd
  2353   00F526  6E20               	movwf	(lcd_4bit_send_string_data_pos@lcd+1)^0,c
  2354   00F528  0E27               	movlw	low STR_5
  2355   00F52A  6E21               	movwf	lcd_4bit_send_string_data_pos@string^0,c
  2356   00F52C  0EFE               	movlw	high STR_5
  2357   00F52E  6E22               	movwf	(lcd_4bit_send_string_data_pos@string+1)^0,c
  2358   00F530  0E01               	movlw	1
  2359   00F532  6E23               	movwf	lcd_4bit_send_string_data_pos@row^0,c
  2360   00F534  0E01               	movlw	1
  2361   00F536  6E24               	movwf	lcd_4bit_send_string_data_pos@col^0,c
  2362   00F538  EC6A  F076         	call	_lcd_4bit_send_string_data_pos	;wreg free
  2363   00F53C  0E92               	movlw	low _Password
  2364   00F53E  6E25               	movwf	enter_your_password@_password^0,c
  2365   00F540  0E00               	movlw	high _Password
  2366   00F542  6E26               	movwf	(enter_your_password@_password+1)^0,c
  2367   00F544  ECCC  F076         	call	_enter_your_password	;wreg free
  2368   00F548                     
  2369                           ;App.c: 105:     ret = password_compare_with_eeprom(Password,&compare_status);
  2370   00F548  0E92               	movlw	low _Password
  2371   00F54A  6E05               	movwf	password_compare_with_eeprom@Password^0,c
  2372   00F54C  0E00               	movlw	high _Password
  2373   00F54E  6E06               	movwf	(password_compare_with_eeprom@Password+1)^0,c
  2374   00F550  0E2E               	movlw	low open_the_safe_program@compare_status
  2375   00F552  6E07               	movwf	password_compare_with_eeprom@compare_status^0,c
  2376   00F554  0E00               	movlw	high open_the_safe_program@compare_status
  2377   00F556  6E08               	movwf	(password_compare_with_eeprom@compare_status+1)^0,c
  2378   00F558  ECB3  F075         	call	_password_compare_with_eeprom	;wreg free
  2379   00F55C  6E2F               	movwf	open_the_safe_program@ret^0,c
  2380                           
  2381                           ;App.c: 106:     switch (compare_status){
  2382   00F55E  EF63  F07B         	goto	l3964
  2383   00F562                     l3922:
  2384                           
  2385                           ;App.c: 108:             ret = Led_turn_on(&green_led);
  2386   00F562  0E55               	movlw	low _green_led
  2387   00F564  6E0B               	movwf	Led_turn_on@led^0,c
  2388   00F566  0E00               	movlw	high _green_led
  2389   00F568  6E0C               	movwf	(Led_turn_on@led+1)^0,c
  2390   00F56A  EC10  F074         	call	_Led_turn_on	;wreg free
  2391   00F56E  6E2F               	movwf	open_the_safe_program@ret^0,c
  2392                           
  2393                           ;App.c: 109:             ret = lcd_4bit_send_cmd(&lcd,0b00000001);
  2394   00F570  0E4B               	movlw	low _lcd
  2395   00F572  6E14               	movwf	lcd_4bit_send_cmd@lcd^0,c
  2396   00F574  0E00               	movlw	high _lcd
  2397   00F576  6E15               	movwf	(lcd_4bit_send_cmd@lcd+1)^0,c
  2398   00F578  0E01               	movlw	1
  2399   00F57A  6E16               	movwf	lcd_4bit_send_cmd@cmd^0,c
  2400   00F57C  ECDA  F072         	call	_lcd_4bit_send_cmd	;wreg free
  2401   00F580  6E2F               	movwf	open_the_safe_program@ret^0,c
  2402   00F582  0E4B               	movlw	low _lcd
  2403   00F584  6E1F               	movwf	lcd_4bit_send_string_data_pos@lcd^0,c
  2404   00F586  0E00               	movlw	high _lcd
  2405   00F588  6E20               	movwf	(lcd_4bit_send_string_data_pos@lcd+1)^0,c
  2406   00F58A  0E3C               	movlw	low STR_6
  2407   00F58C  6E21               	movwf	lcd_4bit_send_string_data_pos@string^0,c
  2408   00F58E  0EFE               	movlw	high STR_6
  2409   00F590  6E22               	movwf	(lcd_4bit_send_string_data_pos@string+1)^0,c
  2410   00F592  0E01               	movlw	1
  2411   00F594  6E23               	movwf	lcd_4bit_send_string_data_pos@row^0,c
  2412   00F596  0E01               	movlw	1
  2413   00F598  6E24               	movwf	lcd_4bit_send_string_data_pos@col^0,c
  2414   00F59A  EC6A  F076         	call	_lcd_4bit_send_string_data_pos	;wreg free
  2415   00F59E  0E51               	movlw	low _dc_motor
  2416   00F5A0  6E0B               	movwf	dc_motor_rotate_right@dc_motor^0,c
  2417   00F5A2  0E00               	movlw	high _dc_motor
  2418   00F5A4  6E0C               	movwf	(dc_motor_rotate_right@dc_motor+1)^0,c
  2419   00F5A6  EC56  F071         	call	_dc_motor_rotate_right	;wreg free
  2420   00F5AA                     
  2421                           ;App.c: 112:             _delay((unsigned long)((1000)*(8000000/4000.0)));
  2422   00F5AA  0E0B               	movlw	11
  2423   00F5AC  6E2D               	movwf	(??_open_the_safe_program+1)^0,c
  2424   00F5AE  0E26               	movlw	38
  2425   00F5B0  6E2C               	movwf	??_open_the_safe_program^0,c
  2426   00F5B2  0E5E               	movlw	94
  2427   00F5B4                     u2807:
  2428   00F5B4  2EE8               	decfsz	wreg,f,c
  2429   00F5B6  D7FE               	bra	u2807
  2430   00F5B8  2E2C               	decfsz	??_open_the_safe_program^0,f,c
  2431   00F5BA  D7FC               	bra	u2807
  2432   00F5BC  2E2D               	decfsz	(??_open_the_safe_program+1)^0,f,c
  2433   00F5BE  D7FA               	bra	u2807
  2434   00F5C0  0E51               	movlw	low _dc_motor
  2435   00F5C2  6E0B               	movwf	dc_motor_stop@dc_motor^0,c
  2436   00F5C4  0E00               	movlw	high _dc_motor
  2437   00F5C6  6E0C               	movwf	(dc_motor_stop@dc_motor+1)^0,c
  2438   00F5C8  EC79  F071         	call	_dc_motor_stop	;wreg free
  2439   00F5CC                     
  2440                           ;App.c: 114:             ret = Led_turn_off(&green_led);
  2441   00F5CC  0E55               	movlw	low _green_led
  2442   00F5CE  6E0B               	movwf	Led_turn_off@led^0,c
  2443   00F5D0  0E00               	movlw	high _green_led
  2444   00F5D2  6E0C               	movwf	(Led_turn_off@led+1)^0,c
  2445   00F5D4  ECCF  F073         	call	_Led_turn_off	;wreg free
  2446   00F5D8  6E2F               	movwf	open_the_safe_program@ret^0,c
  2447   00F5DA                     
  2448                           ;App.c: 115:             wrong_attempts='0';
  2449   00F5DA  0E30               	movlw	48
  2450   00F5DC  6E4A               	movwf	_wrong_attempts^0,c
  2451                           
  2452                           ;App.c: 116:             break;
  2453   00F5DE  EF78  F07B         	goto	l3966
  2454   00F5E2                     l3936:
  2455                           
  2456                           ;App.c: 118:             wrong_attempts++;
  2457   00F5E2  2A4A               	incf	_wrong_attempts^0,f,c
  2458   00F5E4  0E54               	movlw	low _red_led
  2459   00F5E6  6E0B               	movwf	Led_turn_on@led^0,c
  2460   00F5E8  0E00               	movlw	high _red_led
  2461   00F5EA  6E0C               	movwf	(Led_turn_on@led+1)^0,c
  2462   00F5EC  EC10  F074         	call	_Led_turn_on	;wreg free
  2463   00F5F0  0E53               	movlw	low _buzzer
  2464   00F5F2  6E0B               	movwf	buzzer_turn_on@buzzer_obj^0,c
  2465   00F5F4  0E00               	movlw	high _buzzer
  2466   00F5F6  6E0C               	movwf	(buzzer_turn_on@buzzer_obj+1)^0,c
  2467   00F5F8  EC92  F074         	call	_buzzer_turn_on	;wreg free
  2468   00F5FC  0E4B               	movlw	low _lcd
  2469   00F5FE  6E14               	movwf	lcd_4bit_send_cmd@lcd^0,c
  2470   00F600  0E00               	movlw	high _lcd
  2471   00F602  6E15               	movwf	(lcd_4bit_send_cmd@lcd+1)^0,c
  2472   00F604  0E01               	movlw	1
  2473   00F606  6E16               	movwf	lcd_4bit_send_cmd@cmd^0,c
  2474   00F608  ECDA  F072         	call	_lcd_4bit_send_cmd	;wreg free
  2475   00F60C  0E4B               	movlw	low _lcd
  2476   00F60E  6E1F               	movwf	lcd_4bit_send_string_data_pos@lcd^0,c
  2477   00F610  0E00               	movlw	high _lcd
  2478   00F612  6E20               	movwf	(lcd_4bit_send_string_data_pos@lcd+1)^0,c
  2479   00F614  0EB4               	movlw	low STR_7
  2480   00F616  6E21               	movwf	lcd_4bit_send_string_data_pos@string^0,c
  2481   00F618  0EFE               	movlw	high STR_7
  2482   00F61A  6E22               	movwf	(lcd_4bit_send_string_data_pos@string+1)^0,c
  2483   00F61C  0E01               	movlw	1
  2484   00F61E  6E23               	movwf	lcd_4bit_send_string_data_pos@row^0,c
  2485   00F620  0E01               	movlw	1
  2486   00F622  6E24               	movwf	lcd_4bit_send_string_data_pos@col^0,c
  2487   00F624  EC6A  F076         	call	_lcd_4bit_send_string_data_pos	;wreg free
  2488   00F628  0E4B               	movlw	low _lcd
  2489   00F62A  6E1F               	movwf	lcd_4bit_send_string_data_pos@lcd^0,c
  2490   00F62C  0E00               	movlw	high _lcd
  2491   00F62E  6E20               	movwf	(lcd_4bit_send_string_data_pos@lcd+1)^0,c
  2492   00F630  0E80               	movlw	low STR_8
  2493   00F632  6E21               	movwf	lcd_4bit_send_string_data_pos@string^0,c
  2494   00F634  0EFF               	movlw	high STR_8
  2495   00F636  6E22               	movwf	(lcd_4bit_send_string_data_pos@string+1)^0,c
  2496   00F638  0E02               	movlw	2
  2497   00F63A  6E23               	movwf	lcd_4bit_send_string_data_pos@row^0,c
  2498   00F63C  0E01               	movlw	1
  2499   00F63E  6E24               	movwf	lcd_4bit_send_string_data_pos@col^0,c
  2500   00F640  EC6A  F076         	call	_lcd_4bit_send_string_data_pos	;wreg free
  2501   00F644  0E4B               	movlw	low _lcd
  2502   00F646  6E1F               	movwf	lcd_4bit_send_string_data_pos@lcd^0,c
  2503   00F648  0E00               	movlw	high _lcd
  2504   00F64A  6E20               	movwf	(lcd_4bit_send_string_data_pos@lcd+1)^0,c
  2505   00F64C  0EEB               	movlw	low STR_9
  2506   00F64E  6E21               	movwf	lcd_4bit_send_string_data_pos@string^0,c
  2507   00F650  0EFF               	movlw	high STR_9
  2508   00F652  6E22               	movwf	(lcd_4bit_send_string_data_pos@string+1)^0,c
  2509   00F654  0E03               	movlw	3
  2510   00F656  6E23               	movwf	lcd_4bit_send_string_data_pos@row^0,c
  2511   00F658  0E01               	movlw	1
  2512   00F65A  6E24               	movwf	lcd_4bit_send_string_data_pos@col^0,c
  2513   00F65C  EC6A  F076         	call	_lcd_4bit_send_string_data_pos	;wreg free
  2514   00F660  0E4B               	movlw	low _lcd
  2515   00F662  6E1F               	movwf	lcd_4bit_send_char_data_pos@lcd^0,c
  2516   00F664  0E00               	movlw	high _lcd
  2517   00F666  6E20               	movwf	(lcd_4bit_send_char_data_pos@lcd+1)^0,c
  2518   00F668  C04A  F021         	movff	_wrong_attempts,lcd_4bit_send_char_data_pos@data
  2519   00F66C  0E03               	movlw	3
  2520   00F66E  6E22               	movwf	lcd_4bit_send_char_data_pos@row^0,c
  2521   00F670  0E02               	movlw	2
  2522   00F672  6E23               	movwf	lcd_4bit_send_char_data_pos@col^0,c
  2523   00F674  ECD3  F074         	call	_lcd_4bit_send_char_data_pos	;wreg free
  2524   00F678                     
  2525                           ;App.c: 126:             _delay((unsigned long)((2000)*(8000000/4000.0)));
  2526   00F678  0E15               	movlw	21
  2527   00F67A  6E2D               	movwf	(??_open_the_safe_program+1)^0,c
  2528   00F67C  0E4B               	movlw	75
  2529   00F67E  6E2C               	movwf	??_open_the_safe_program^0,c
  2530   00F680  0EBE               	movlw	190
  2531   00F682                     u2817:
  2532   00F682  2EE8               	decfsz	wreg,f,c
  2533   00F684  D7FE               	bra	u2817
  2534   00F686  2E2C               	decfsz	??_open_the_safe_program^0,f,c
  2535   00F688  D7FC               	bra	u2817
  2536   00F68A  2E2D               	decfsz	(??_open_the_safe_program+1)^0,f,c
  2537   00F68C  D7FA               	bra	u2817
  2538   00F68E  F000 F000          	nop2	
  2539   00F692  0E53               	movlw	low _buzzer
  2540   00F694  6E0B               	movwf	buzzer_turn_off@buzzer_obj^0,c
  2541   00F696  0E00               	movlw	high _buzzer
  2542   00F698  6E0C               	movwf	(buzzer_turn_off@buzzer_obj+1)^0,c
  2543   00F69A  EC51  F074         	call	_buzzer_turn_off	;wreg free
  2544   00F69E                     
  2545                           ;App.c: 128:             ret = Led_turn_off(&red_led);
  2546   00F69E  0E54               	movlw	low _red_led
  2547   00F6A0  6E0B               	movwf	Led_turn_off@led^0,c
  2548   00F6A2  0E00               	movlw	high _red_led
  2549   00F6A4  6E0C               	movwf	(Led_turn_off@led+1)^0,c
  2550   00F6A6  ECCF  F073         	call	_Led_turn_off	;wreg free
  2551   00F6AA  6E2F               	movwf	open_the_safe_program@ret^0,c
  2552   00F6AC                     
  2553                           ;App.c: 129:             if(wrong_attempts<'3'){
  2554   00F6AC  0E33               	movlw	51
  2555   00F6AE  604A               	cpfslt	_wrong_attempts^0,c
  2556   00F6B0  EF5C  F07B         	goto	u2241
  2557   00F6B4  EF5E  F07B         	goto	u2240
  2558   00F6B8                     u2241:
  2559   00F6B8  EF78  F07B         	goto	l3966
  2560   00F6BC                     u2240:
  2561   00F6BC                     
  2562                           ;App.c: 130:                 ret = try_again_after_5_sec();
  2563   00F6BC  ECBD  F077         	call	_try_again_after_5_sec	;wreg free
  2564   00F6C0  6E2F               	movwf	open_the_safe_program@ret^0,c
  2565   00F6C2  EF78  F07B         	goto	l3966
  2566   00F6C6                     l3964:
  2567   00F6C6  502E               	movf	open_the_safe_program@compare_status^0,w,c
  2568   00F6C8  6E2C               	movwf	??_open_the_safe_program^0,c
  2569   00F6CA  6A2D               	clrf	(??_open_the_safe_program+1)^0,c
  2570                           
  2571                           ; Switch on 2 bytes has been partitioned into a top level switch of size 1, and 1 sub-sw
      +                          itches
  2572                           ; Switch size 1, requested type "simple"
  2573                           ; Number of cases is 1, Range of values is 0 to 0
  2574                           ; switch strategies available:
  2575                           ; Name         Instructions Cycles
  2576                           ; simple_byte            4     3 (average)
  2577                           ;	Chosen strategy is simple_byte
  2578   00F6CC  502D               	movf	(??_open_the_safe_program+1)^0,w,c
  2579   00F6CE  0A00               	xorlw	0	; case 0
  2580   00F6D0  B4D8               	btfsc	status,2,c
  2581   00F6D2  EF6D  F07B         	goto	l4450
  2582   00F6D6  EF78  F07B         	goto	l3966
  2583   00F6DA                     l4450:
  2584                           
  2585                           ; Switch size 1, requested type "simple"
  2586                           ; Number of cases is 2, Range of values is 0 to 1
  2587                           ; switch strategies available:
  2588                           ; Name         Instructions Cycles
  2589                           ; simple_byte            7     4 (average)
  2590                           ;	Chosen strategy is simple_byte
  2591   00F6DA  502C               	movf	??_open_the_safe_program^0,w,c
  2592   00F6DC  0A00               	xorlw	0	; case 0
  2593   00F6DE  B4D8               	btfsc	status,2,c
  2594   00F6E0  EFF1  F07A         	goto	l3936
  2595   00F6E4  0A01               	xorlw	1	; case 1
  2596   00F6E6  B4D8               	btfsc	status,2,c
  2597   00F6E8  EFB1  F07A         	goto	l3922
  2598   00F6EC  EF78  F07B         	goto	l3966
  2599   00F6F0                     l3966:
  2600                           
  2601                           ;App.c: 136:     return ret;
  2602   00F6F0  502F               	movf	open_the_safe_program@ret^0,w,c
  2603   00F6F2  0012               	return		;funcret
  2604   00F6F4                     __end_of_open_the_safe_program:
  2605                           	callstack 0
  2606                           
  2607 ;; *************** function _dc_motor_stop *****************
  2608 ;; Defined at:
  2609 ;;		line 50 in file "ECU_Layer/ecu_dc_motor/ecu_dc_motor.c"
  2610 ;; Parameters:    Size  Location     Type
  2611 ;;  dc_motor        2   10[COMRAM] PTR const struct .
  2612 ;;		 -> dc_motor(2), 
  2613 ;; Auto vars:     Size  Location     Type
  2614 ;;  ret             1   12[COMRAM] unsigned char 
  2615 ;; Return value:  Size  Location     Type
  2616 ;;                  1    wreg      unsigned char 
  2617 ;; Registers used:
  2618 ;;		wreg, fsr2l, fsr2h, status,2, status,0, prodl, prodh, cstack
  2619 ;; Tracked objects:
  2620 ;;		On entry : 0/0
  2621 ;;		On exit  : 0/0
  2622 ;;		Unchanged: 0/0
  2623 ;; Data sizes:     COMRAM   BANK0   BANK1   BANK2   BANK3   BANK4   BANK5   BANK6   BANK7   BANK8   BANK9  BANK10  BANK1
      +1  BANK12  BANK13  BANK14  BANK15
  2624 ;;      Params:         2       0       0       0       0       0       0       0       0       0       0       0       
      +0       0       0       0       0
  2625 ;;      Locals:         1       0       0       0       0       0       0       0       0       0       0       0       
      +0       0       0       0       0
  2626 ;;      Temps:          0       0       0       0       0       0       0       0       0       0       0       0       
      +0       0       0       0       0
  2627 ;;      Totals:         3       0       0       0       0       0       0       0       0       0       0       0       
      +0       0       0       0       0
  2628 ;;Total ram usage:        3 bytes
  2629 ;; Hardware stack levels used: 1
  2630 ;; Hardware stack levels required when called: 1
  2631 ;; This function calls:
  2632 ;;		_gpio_pin_write_logic
  2633 ;; This function is called by:
  2634 ;;		_open_the_safe_program
  2635 ;; This function uses a non-reentrant model
  2636 ;;
  2637                           
  2638                           	psect	text4
  2639   00E2F2                     __ptext4:
  2640                           	callstack 0
  2641   00E2F2                     _dc_motor_stop:
  2642                           	callstack 28
  2643   00E2F2                     
  2644                           ;ECU_Layer/ecu_dc_motor/ecu_dc_motor.c: 54:     if (((void*)0) == dc_motor )
  2645   00E2F2  500B               	movf	dc_motor_stop@dc_motor^0,w,c
  2646   00E2F4  100C               	iorwf	(dc_motor_stop@dc_motor+1)^0,w,c
  2647   00E2F6  A4D8               	btfss	status,2,c
  2648   00E2F8  EF80  F071         	goto	u2011
  2649   00E2FC  EF82  F071         	goto	u2010
  2650   00E300                     u2011:
  2651   00E300  EF86  F071         	goto	l3584
  2652   00E304                     u2010:
  2653   00E304                     
  2654                           ;ECU_Layer/ecu_dc_motor/ecu_dc_motor.c: 55:     {;ECU_Layer/ecu_dc_motor/ecu_dc_motor.c:
      +                           56:         ret = (STD_ReturnType)0x00;
  2655   00E304  0E00               	movlw	0
  2656   00E306  6E0D               	movwf	dc_motor_stop@ret^0,c
  2657                           
  2658                           ;ECU_Layer/ecu_dc_motor/ecu_dc_motor.c: 57:     }
  2659   00E308  EF9A  F071         	goto	l3586
  2660   00E30C                     l3584:
  2661                           
  2662                           ;ECU_Layer/ecu_dc_motor/ecu_dc_motor.c: 59:     {;ECU_Layer/ecu_dc_motor/ecu_dc_motor.c:
      +                           60:         ret = gpio_pin_write_logic(&(dc_motor->dc_motor_pin[0]),GPIO_low );
  2663   00E30C  C00B  F001         	movff	dc_motor_stop@dc_motor,gpio_pin_write_logic@Pin_config
  2664   00E310  C00C  F002         	movff	dc_motor_stop@dc_motor+1,gpio_pin_write_logic@Pin_config+1
  2665   00E314  0E00               	movlw	0
  2666   00E316  6E03               	movwf	gpio_pin_write_logic@logic^0,c
  2667   00E318  EC38  F077         	call	_gpio_pin_write_logic	;wreg free
  2668   00E31C  6E0D               	movwf	dc_motor_stop@ret^0,c
  2669                           
  2670                           ;ECU_Layer/ecu_dc_motor/ecu_dc_motor.c: 61:         ret = gpio_pin_write_logic(&(dc_moto
      +                          r->dc_motor_pin[1]),GPIO_low);
  2671   00E31E  0E01               	movlw	1
  2672   00E320  240B               	addwf	dc_motor_stop@dc_motor^0,w,c
  2673   00E322  6E01               	movwf	gpio_pin_write_logic@Pin_config^0,c
  2674   00E324  0E00               	movlw	0
  2675   00E326  200C               	addwfc	(dc_motor_stop@dc_motor+1)^0,w,c
  2676   00E328  6E02               	movwf	(gpio_pin_write_logic@Pin_config+1)^0,c
  2677   00E32A  0E00               	movlw	0
  2678   00E32C  6E03               	movwf	gpio_pin_write_logic@logic^0,c
  2679   00E32E  EC38  F077         	call	_gpio_pin_write_logic	;wreg free
  2680   00E332  6E0D               	movwf	dc_motor_stop@ret^0,c
  2681   00E334                     l3586:
  2682                           
  2683                           ;ECU_Layer/ecu_dc_motor/ecu_dc_motor.c: 63:     return ret;
  2684   00E334  500D               	movf	dc_motor_stop@ret^0,w,c
  2685   00E336  0012               	return		;funcret
  2686   00E338                     __end_of_dc_motor_stop:
  2687                           	callstack 0
  2688                           
  2689 ;; *************** function _dc_motor_rotate_right *****************
  2690 ;; Defined at:
  2691 ;;		line 20 in file "ECU_Layer/ecu_dc_motor/ecu_dc_motor.c"
  2692 ;; Parameters:    Size  Location     Type
  2693 ;;  dc_motor        2   10[COMRAM] PTR const struct .
  2694 ;;		 -> dc_motor(2), 
  2695 ;; Auto vars:     Size  Location     Type
  2696 ;;  ret             1   12[COMRAM] unsigned char 
  2697 ;; Return value:  Size  Location     Type
  2698 ;;                  1    wreg      unsigned char 
  2699 ;; Registers used:
  2700 ;;		wreg, fsr2l, fsr2h, status,2, status,0, prodl, prodh, cstack
  2701 ;; Tracked objects:
  2702 ;;		On entry : 0/0
  2703 ;;		On exit  : 0/0
  2704 ;;		Unchanged: 0/0
  2705 ;; Data sizes:     COMRAM   BANK0   BANK1   BANK2   BANK3   BANK4   BANK5   BANK6   BANK7   BANK8   BANK9  BANK10  BANK1
      +1  BANK12  BANK13  BANK14  BANK15
  2706 ;;      Params:         2       0       0       0       0       0       0       0       0       0       0       0       
      +0       0       0       0       0
  2707 ;;      Locals:         1       0       0       0       0       0       0       0       0       0       0       0       
      +0       0       0       0       0
  2708 ;;      Temps:          0       0       0       0       0       0       0       0       0       0       0       0       
      +0       0       0       0       0
  2709 ;;      Totals:         3       0       0       0       0       0       0       0       0       0       0       0       
      +0       0       0       0       0
  2710 ;;Total ram usage:        3 bytes
  2711 ;; Hardware stack levels used: 1
  2712 ;; Hardware stack levels required when called: 1
  2713 ;; This function calls:
  2714 ;;		_gpio_pin_write_logic
  2715 ;; This function is called by:
  2716 ;;		_open_the_safe_program
  2717 ;; This function uses a non-reentrant model
  2718 ;;
  2719                           
  2720                           	psect	text5
  2721   00E2AC                     __ptext5:
  2722                           	callstack 0
  2723   00E2AC                     _dc_motor_rotate_right:
  2724                           	callstack 28
  2725   00E2AC                     
  2726                           ;ECU_Layer/ecu_dc_motor/ecu_dc_motor.c: 24:     if (((void*)0) == dc_motor )
  2727   00E2AC  500B               	movf	dc_motor_rotate_right@dc_motor^0,w,c
  2728   00E2AE  100C               	iorwf	(dc_motor_rotate_right@dc_motor+1)^0,w,c
  2729   00E2B0  A4D8               	btfss	status,2,c
  2730   00E2B2  EF5D  F071         	goto	u2001
  2731   00E2B6  EF5F  F071         	goto	u2000
  2732   00E2BA                     u2001:
  2733   00E2BA  EF63  F071         	goto	l3572
  2734   00E2BE                     u2000:
  2735   00E2BE                     
  2736                           ;ECU_Layer/ecu_dc_motor/ecu_dc_motor.c: 25:     {;ECU_Layer/ecu_dc_motor/ecu_dc_motor.c:
      +                           26:         ret = (STD_ReturnType)0x00;
  2737   00E2BE  0E00               	movlw	0
  2738   00E2C0  6E0D               	movwf	dc_motor_rotate_right@ret^0,c
  2739                           
  2740                           ;ECU_Layer/ecu_dc_motor/ecu_dc_motor.c: 27:     }
  2741   00E2C2  EF77  F071         	goto	l3574
  2742   00E2C6                     l3572:
  2743                           
  2744                           ;ECU_Layer/ecu_dc_motor/ecu_dc_motor.c: 29:     {;ECU_Layer/ecu_dc_motor/ecu_dc_motor.c:
      +                           30:         ret = gpio_pin_write_logic(&(dc_motor->dc_motor_pin[0]),GPIO_high);
  2745   00E2C6  C00B  F001         	movff	dc_motor_rotate_right@dc_motor,gpio_pin_write_logic@Pin_config
  2746   00E2CA  C00C  F002         	movff	dc_motor_rotate_right@dc_motor+1,gpio_pin_write_logic@Pin_config+1
  2747   00E2CE  0E01               	movlw	1
  2748   00E2D0  6E03               	movwf	gpio_pin_write_logic@logic^0,c
  2749   00E2D2  EC38  F077         	call	_gpio_pin_write_logic	;wreg free
  2750   00E2D6  6E0D               	movwf	dc_motor_rotate_right@ret^0,c
  2751                           
  2752                           ;ECU_Layer/ecu_dc_motor/ecu_dc_motor.c: 31:         ret = gpio_pin_write_logic(&(dc_moto
      +                          r->dc_motor_pin[1]),GPIO_low );
  2753   00E2D8  0E01               	movlw	1
  2754   00E2DA  240B               	addwf	dc_motor_rotate_right@dc_motor^0,w,c
  2755   00E2DC  6E01               	movwf	gpio_pin_write_logic@Pin_config^0,c
  2756   00E2DE  0E00               	movlw	0
  2757   00E2E0  200C               	addwfc	(dc_motor_rotate_right@dc_motor+1)^0,w,c
  2758   00E2E2  6E02               	movwf	(gpio_pin_write_logic@Pin_config+1)^0,c
  2759   00E2E4  0E00               	movlw	0
  2760   00E2E6  6E03               	movwf	gpio_pin_write_logic@logic^0,c
  2761   00E2E8  EC38  F077         	call	_gpio_pin_write_logic	;wreg free
  2762   00E2EC  6E0D               	movwf	dc_motor_rotate_right@ret^0,c
  2763   00E2EE                     l3574:
  2764                           
  2765                           ;ECU_Layer/ecu_dc_motor/ecu_dc_motor.c: 33:     return ret;
  2766   00E2EE  500D               	movf	dc_motor_rotate_right@ret^0,w,c
  2767   00E2F0  0012               	return		;funcret
  2768   00E2F2                     __end_of_dc_motor_rotate_right:
  2769                           	callstack 0
  2770                           
  2771 ;; *************** function _clear_the_entered_password *****************
  2772 ;; Defined at:
  2773 ;;		line 82 in file "App.c"
  2774 ;; Parameters:    Size  Location     Type
  2775 ;;  _password       2    0[COMRAM] PTR unsigned char 
  2776 ;;		 -> Password(10), 
  2777 ;; Auto vars:     Size  Location     Type
  2778 ;;  temp_passwor    1    3[COMRAM] unsigned char 
  2779 ;;  ret             1    2[COMRAM] unsigned char 
  2780 ;; Return value:  Size  Location     Type
  2781 ;;                  1    wreg      unsigned char 
  2782 ;; Registers used:
  2783 ;;		wreg, fsr2l, fsr2h, status,2, status,0
  2784 ;; Tracked objects:
  2785 ;;		On entry : 0/0
  2786 ;;		On exit  : 0/0
  2787 ;;		Unchanged: 0/0
  2788 ;; Data sizes:     COMRAM   BANK0   BANK1   BANK2   BANK3   BANK4   BANK5   BANK6   BANK7   BANK8   BANK9  BANK10  BANK1
      +1  BANK12  BANK13  BANK14  BANK15
  2789 ;;      Params:         2       0       0       0       0       0       0       0       0       0       0       0       
      +0       0       0       0       0
  2790 ;;      Locals:         2       0       0       0       0       0       0       0       0       0       0       0       
      +0       0       0       0       0
  2791 ;;      Temps:          0       0       0       0       0       0       0       0       0       0       0       0       
      +0       0       0       0       0
  2792 ;;      Totals:         4       0       0       0       0       0       0       0       0       0       0       0       
      +0       0       0       0       0
  2793 ;;Total ram usage:        4 bytes
  2794 ;; Hardware stack levels used: 1
  2795 ;; This function calls:
  2796 ;;		Nothing
  2797 ;; This function is called by:
  2798 ;;		_main
  2799 ;; This function uses a non-reentrant model
  2800 ;;
  2801                           
  2802                           	psect	text6
  2803   00E17A                     __ptext6:
  2804                           	callstack 0
  2805   00E17A                     _clear_the_entered_password:
  2806                           	callstack 30
  2807   00E17A                     
  2808                           ;App.c: 83:     STD_ReturnType ret = (STD_ReturnType)0x01;
  2809   00E17A  0E01               	movlw	1
  2810   00E17C  6E03               	movwf	clear_the_entered_password@ret^0,c
  2811                           
  2812                           ;App.c: 84:     uint8 temp_password_digits_counter=0;
  2813   00E17E  0E00               	movlw	0
  2814   00E180  6E04               	movwf	clear_the_entered_password@temp_password_digits_counter^0,c
  2815                           
  2816                           ;App.c: 85:     while(temp_password_digits_counter<10){
  2817   00E182  EFCC  F070         	goto	l3988
  2818   00E186                     l3984:
  2819                           
  2820                           ;App.c: 86:         _password[temp_password_digits_counter]=0xff;
  2821   00E186  5004               	movf	clear_the_entered_password@temp_password_digits_counter^0,w,c
  2822   00E188  2401               	addwf	clear_the_entered_password@_password^0,w,c
  2823   00E18A  6ED9               	movwf	fsr2l,c
  2824   00E18C  0E00               	movlw	0
  2825   00E18E  2002               	addwfc	(clear_the_entered_password@_password+1)^0,w,c
  2826   00E190  6EDA               	movwf	fsr2h,c
  2827   00E192  0EFF               	movlw	255
  2828   00E194  6EDF               	movwf	indf2,c
  2829   00E196                     
  2830                           ;App.c: 87:         temp_password_digits_counter++;
  2831   00E196  2A04               	incf	clear_the_entered_password@temp_password_digits_counter^0,f,c
  2832   00E198                     l3988:
  2833                           
  2834                           ;App.c: 85:     while(temp_password_digits_counter<10){
  2835   00E198  0E09               	movlw	9
  2836   00E19A  6404               	cpfsgt	clear_the_entered_password@temp_password_digits_counter^0,c
  2837   00E19C  EFD2  F070         	goto	u2251
  2838   00E1A0  EFD4  F070         	goto	u2250
  2839   00E1A4                     u2251:
  2840   00E1A4  EFC3  F070         	goto	l3984
  2841   00E1A8                     u2250:
  2842   00E1A8                     
  2843                           ;App.c: 89:     return ret;
  2844   00E1A8  5003               	movf	clear_the_entered_password@ret^0,w,c
  2845   00E1AA  0012               	return		;funcret
  2846   00E1AC                     __end_of_clear_the_entered_password:
  2847                           	callstack 0
  2848                           
  2849 ;; *************** function _choose_program *****************
  2850 ;; Defined at:
  2851 ;;		line 298 in file "App.c"
  2852 ;; Parameters:    Size  Location     Type
  2853 ;;  choossed_pro    2   38[COMRAM] PTR unsigned char 
  2854 ;;		 -> main@choossed_program(1), 
  2855 ;; Auto vars:     Size  Location     Type
  2856 ;;  pressed_butt    1   41[COMRAM] unsigned char 
  2857 ;;  ret             1   40[COMRAM] unsigned char 
  2858 ;; Return value:  Size  Location     Type
  2859 ;;                  1    wreg      unsigned char 
  2860 ;; Registers used:
  2861 ;;		wreg, fsr2l, fsr2h, status,2, status,0, tblptrl, tblptrh, tblptru, prodl, prodh, cstack
  2862 ;; Tracked objects:
  2863 ;;		On entry : 0/0
  2864 ;;		On exit  : 0/0
  2865 ;;		Unchanged: 0/0
  2866 ;; Data sizes:     COMRAM   BANK0   BANK1   BANK2   BANK3   BANK4   BANK5   BANK6   BANK7   BANK8   BANK9  BANK10  BANK1
      +1  BANK12  BANK13  BANK14  BANK15
  2867 ;;      Params:         2       0       0       0       0       0       0       0       0       0       0       0       
      +0       0       0       0       0
  2868 ;;      Locals:         2       0       0       0       0       0       0       0       0       0       0       0       
      +0       0       0       0       0
  2869 ;;      Temps:          0       0       0       0       0       0       0       0       0       0       0       0       
      +0       0       0       0       0
  2870 ;;      Totals:         4       0       0       0       0       0       0       0       0       0       0       0       
      +0       0       0       0       0
  2871 ;;Total ram usage:        4 bytes
  2872 ;; Hardware stack levels used: 1
  2873 ;; Hardware stack levels required when called: 5
  2874 ;; This function calls:
  2875 ;;		_lcd_4bit_send_cmd
  2876 ;;		_lcd_4bit_send_string_data_pos
  2877 ;;		_read_keypad
  2878 ;; This function is called by:
  2879 ;;		_main
  2880 ;; This function uses a non-reentrant model
  2881 ;;
  2882                           
  2883                           	psect	text7
  2884   00EAC0                     __ptext7:
  2885                           	callstack 0
  2886   00EAC0                     _choose_program:
  2887                           	callstack 25
  2888   00EAC0                     
  2889                           ;App.c: 300:     STD_ReturnType pressed_button=0;
  2890   00EAC0  0E00               	movlw	0
  2891   00EAC2  6E2A               	movwf	choose_program@pressed_button^0,c
  2892   00EAC4  0E4B               	movlw	low _lcd
  2893   00EAC6  6E14               	movwf	lcd_4bit_send_cmd@lcd^0,c
  2894   00EAC8  0E00               	movlw	high _lcd
  2895   00EACA  6E15               	movwf	(lcd_4bit_send_cmd@lcd+1)^0,c
  2896   00EACC  0E01               	movlw	1
  2897   00EACE  6E16               	movwf	lcd_4bit_send_cmd@cmd^0,c
  2898   00EAD0  ECDA  F072         	call	_lcd_4bit_send_cmd	;wreg free
  2899   00EAD4  0E4B               	movlw	low _lcd
  2900   00EAD6  6E1F               	movwf	lcd_4bit_send_string_data_pos@lcd^0,c
  2901   00EAD8  0E00               	movlw	high _lcd
  2902   00EADA  6E20               	movwf	(lcd_4bit_send_string_data_pos@lcd+1)^0,c
  2903   00EADC  0E90               	movlw	low STR_17
  2904   00EADE  6E21               	movwf	lcd_4bit_send_string_data_pos@string^0,c
  2905   00EAE0  0EFF               	movlw	high STR_17
  2906   00EAE2  6E22               	movwf	(lcd_4bit_send_string_data_pos@string+1)^0,c
  2907   00EAE4  0E01               	movlw	1
  2908   00EAE6  6E23               	movwf	lcd_4bit_send_string_data_pos@row^0,c
  2909   00EAE8  0E01               	movlw	1
  2910   00EAEA  6E24               	movwf	lcd_4bit_send_string_data_pos@col^0,c
  2911   00EAEC  EC6A  F076         	call	_lcd_4bit_send_string_data_pos	;wreg free
  2912   00EAF0  0E4B               	movlw	low _lcd
  2913   00EAF2  6E1F               	movwf	lcd_4bit_send_string_data_pos@lcd^0,c
  2914   00EAF4  0E00               	movlw	high _lcd
  2915   00EAF6  6E20               	movwf	(lcd_4bit_send_string_data_pos@lcd+1)^0,c
  2916   00EAF8  0E4B               	movlw	low STR_18
  2917   00EAFA  6E21               	movwf	lcd_4bit_send_string_data_pos@string^0,c
  2918   00EAFC  0EFF               	movlw	high STR_18
  2919   00EAFE  6E22               	movwf	(lcd_4bit_send_string_data_pos@string+1)^0,c
  2920   00EB00  0E02               	movlw	2
  2921   00EB02  6E23               	movwf	lcd_4bit_send_string_data_pos@row^0,c
  2922   00EB04  0E01               	movlw	1
  2923   00EB06  6E24               	movwf	lcd_4bit_send_string_data_pos@col^0,c
  2924   00EB08  EC6A  F076         	call	_lcd_4bit_send_string_data_pos	;wreg free
  2925   00EB0C                     l3898:
  2926   00EB0C  0E9C               	movlw	low _keypad
  2927   00EB0E  6E0B               	movwf	read_keypad@keypad^0,c
  2928   00EB10  0E00               	movlw	high _keypad
  2929   00EB12  6E0C               	movwf	(read_keypad@keypad+1)^0,c
  2930   00EB14  0E2A               	movlw	low choose_program@pressed_button
  2931   00EB16  6E0D               	movwf	read_keypad@value^0,c
  2932   00EB18  0E00               	movlw	high choose_program@pressed_button
  2933   00EB1A  6E0E               	movwf	(read_keypad@value+1)^0,c
  2934   00EB1C  ECCF  F078         	call	_read_keypad	;wreg free
  2935   00EB20                     
  2936                           ;App.c: 308:         if (('1'==pressed_button) || ('2'==pressed_button)){
  2937   00EB20  0E31               	movlw	49
  2938   00EB22  182A               	xorwf	choose_program@pressed_button^0,w,c
  2939   00EB24  B4D8               	btfsc	status,2,c
  2940   00EB26  EF97  F075         	goto	u2221
  2941   00EB2A  EF99  F075         	goto	u2220
  2942   00EB2E                     u2221:
  2943   00EB2E  EFA2  F075         	goto	l3904
  2944   00EB32                     u2220:
  2945   00EB32  0E32               	movlw	50
  2946   00EB34  182A               	xorwf	choose_program@pressed_button^0,w,c
  2947   00EB36  A4D8               	btfss	status,2,c
  2948   00EB38  EFA0  F075         	goto	u2231
  2949   00EB3C  EFA2  F075         	goto	u2230
  2950   00EB40                     u2231:
  2951   00EB40  EF86  F075         	goto	l3898
  2952   00EB44                     u2230:
  2953   00EB44                     l3904:
  2954                           
  2955                           ;App.c: 313:     ret = lcd_4bit_send_cmd(&lcd,0b00000001);
  2956   00EB44  0E4B               	movlw	low _lcd
  2957   00EB46  6E14               	movwf	lcd_4bit_send_cmd@lcd^0,c
  2958   00EB48  0E00               	movlw	high _lcd
  2959   00EB4A  6E15               	movwf	(lcd_4bit_send_cmd@lcd+1)^0,c
  2960   00EB4C  0E01               	movlw	1
  2961   00EB4E  6E16               	movwf	lcd_4bit_send_cmd@cmd^0,c
  2962   00EB50  ECDA  F072         	call	_lcd_4bit_send_cmd	;wreg free
  2963   00EB54  6E29               	movwf	choose_program@ret^0,c
  2964   00EB56                     
  2965                           ;App.c: 314:     *choossed_program = pressed_button;
  2966   00EB56  C027  FFD9         	movff	choose_program@choossed_program,fsr2l
  2967   00EB5A  C028  FFDA         	movff	choose_program@choossed_program+1,fsr2h
  2968   00EB5E  C02A  FFDF         	movff	choose_program@pressed_button,indf2
  2969   00EB62                     
  2970                           ;App.c: 315:     return ret;
  2971   00EB62  5029               	movf	choose_program@ret^0,w,c
  2972   00EB64  0012               	return		;funcret
  2973   00EB66                     __end_of_choose_program:
  2974                           	callstack 0
  2975                           
  2976 ;; *************** function _change_the_password_program *****************
  2977 ;; Defined at:
  2978 ;;		line 147 in file "App.c"
  2979 ;; Parameters:    Size  Location     Type
  2980 ;;		None
  2981 ;; Auto vars:     Size  Location     Type
  2982 ;;  ret             1   67[COMRAM] unsigned char 
  2983 ;; Return value:  Size  Location     Type
  2984 ;;                  1    wreg      unsigned char 
  2985 ;; Registers used:
  2986 ;;		wreg, fsr1l, fsr1h, fsr2l, fsr2h, status,2, status,0, tblptrl, tblptrh, tblptru, prodl, prodh, cstack
  2987 ;; Tracked objects:
  2988 ;;		On entry : 0/0
  2989 ;;		On exit  : 0/0
  2990 ;;		Unchanged: 0/0
  2991 ;; Data sizes:     COMRAM   BANK0   BANK1   BANK2   BANK3   BANK4   BANK5   BANK6   BANK7   BANK8   BANK9  BANK10  BANK1
      +1  BANK12  BANK13  BANK14  BANK15
  2992 ;;      Params:         0       0       0       0       0       0       0       0       0       0       0       0       
      +0       0       0       0       0
  2993 ;;      Locals:         1       0       0       0       0       0       0       0       0       0       0       0       
      +0       0       0       0       0
  2994 ;;      Temps:          0       0       0       0       0       0       0       0       0       0       0       0       
      +0       0       0       0       0
  2995 ;;      Totals:         1       0       0       0       0       0       0       0       0       0       0       0       
      +0       0       0       0       0
  2996 ;;Total ram usage:        1 bytes
  2997 ;; Hardware stack levels used: 1
  2998 ;; Hardware stack levels required when called: 7
  2999 ;; This function calls:
  3000 ;;		_set_password
  3001 ;; This function is called by:
  3002 ;;		_main
  3003 ;; This function uses a non-reentrant model
  3004 ;;
  3005                           
  3006                           	psect	text8
  3007   00E132                     __ptext8:
  3008                           	callstack 0
  3009   00E132                     _change_the_password_program:
  3010                           	callstack 23
  3011   00E132                     
  3012                           ;App.c: 149:     ret = set_password();
  3013   00E132  EC7A  F07B         	call	_set_password	;wreg free
  3014   00E136  6E44               	movwf	change_the_password_program@ret^0,c
  3015   00E138                     
  3016                           ;App.c: 150:     return ret;
  3017   00E138  5044               	movf	change_the_password_program@ret^0,w,c
  3018   00E13A  0012               	return		;funcret
  3019   00E13C                     __end_of_change_the_password_program:
  3020                           	callstack 0
  3021                           
  3022 ;; *************** function _set_password *****************
  3023 ;; Defined at:
  3024 ;;		line 160 in file "App.c"
  3025 ;; Parameters:    Size  Location     Type
  3026 ;;		None
  3027 ;; Auto vars:     Size  Location     Type
  3028 ;;  Temp_Passwor   10   55[COMRAM] unsigned char [10]
  3029 ;;  Temp_Passwor   10   45[COMRAM] unsigned char [10]
  3030 ;;  ret             1   66[COMRAM] unsigned char 
  3031 ;;  compare_stat    1   65[COMRAM] unsigned char 
  3032 ;; Return value:  Size  Location     Type
  3033 ;;                  1    wreg      unsigned char 
  3034 ;; Registers used:
  3035 ;;		wreg, fsr1l, fsr1h, fsr2l, fsr2h, status,2, status,0, tblptrl, tblptrh, tblptru, prodl, prodh, cstack
  3036 ;; Tracked objects:
  3037 ;;		On entry : 0/0
  3038 ;;		On exit  : 0/0
  3039 ;;		Unchanged: 0/0
  3040 ;; Data sizes:     COMRAM   BANK0   BANK1   BANK2   BANK3   BANK4   BANK5   BANK6   BANK7   BANK8   BANK9  BANK10  BANK1
      +1  BANK12  BANK13  BANK14  BANK15
  3041 ;;      Params:         0       0       0       0       0       0       0       0       0       0       0       0       
      +0       0       0       0       0
  3042 ;;      Locals:        22       0       0       0       0       0       0       0       0       0       0       0       
      +0       0       0       0       0
  3043 ;;      Temps:          2       0       0       0       0       0       0       0       0       0       0       0       
      +0       0       0       0       0
  3044 ;;      Totals:        24       0       0       0       0       0       0       0       0       0       0       0       
      +0       0       0       0       0
  3045 ;;Total ram usage:       24 bytes
  3046 ;; Hardware stack levels used: 1
  3047 ;; Hardware stack levels required when called: 6
  3048 ;; This function calls:
  3049 ;;		_Led_turn_off
  3050 ;;		_Led_turn_on
  3051 ;;		_buzzer_turn_off
  3052 ;;		_buzzer_turn_on
  3053 ;;		_clear_password_from_eeprom
  3054 ;;		_enter_your_password
  3055 ;;		_lcd_4bit_send_char_data_pos
  3056 ;;		_lcd_4bit_send_cmd
  3057 ;;		_lcd_4bit_send_string_data_pos
  3058 ;;		_password_compare_with_eeprom
  3059 ;;		_try_again_after_5_sec
  3060 ;;		_write_the_password_in_eeprom
  3061 ;; This function is called by:
  3062 ;;		_change_the_password_program
  3063 ;; This function uses a non-reentrant model
  3064 ;;
  3065                           
  3066                           	psect	text9
  3067   00F6F4                     __ptext9:
  3068                           	callstack 0
  3069   00F6F4                     _set_password:
  3070                           	callstack 23
  3071   00F6F4                     
  3072                           ;App.c: 162:     uint8 Temp_Password_1[10]={0xff,0xff,0xff,0xff,0xff,0xff,0xff,0xff,0xff
      +                          ,0xff};
  3073   00F6F4  EE20  F06A         	lfsr	2,set_password@F3509
  3074   00F6F8  EE10  F02E         	lfsr	1,set_password@Temp_Password_1
  3075   00F6FC  0E09               	movlw	9
  3076   00F6FE                     u2021:
  3077   00F6FE  CFDB FFE3          	movff	plusw2,plusw1
  3078   00F702  06E8               	decf	wreg,f,c
  3079   00F704  E2FC               	bc	u2021
  3080   00F706                     
  3081                           ;App.c: 163:     uint8 Temp_Password_2[10]={0xff,0xff,0xff,0xff,0xff,0xff,0xff,0xff,0xff
      +                          ,0xff};;
  3082   00F706  EE20  F060         	lfsr	2,set_password@F3511
  3083   00F70A  EE10  F038         	lfsr	1,set_password@Temp_Password_2
  3084   00F70E  0E09               	movlw	9
  3085   00F710                     u2031:
  3086   00F710  CFDB FFE3          	movff	plusw2,plusw1
  3087   00F714  06E8               	decf	wreg,f,c
  3088   00F716  E2FC               	bc	u2031
  3089                           
  3090                           ;App.c: 164:     uint8 compare_status=0;
  3091   00F718  0E00               	movlw	0
  3092   00F71A  6E42               	movwf	set_password@compare_status^0,c
  3093   00F71C  0E4B               	movlw	low _lcd
  3094   00F71E  6E14               	movwf	lcd_4bit_send_cmd@lcd^0,c
  3095   00F720  0E00               	movlw	high _lcd
  3096   00F722  6E15               	movwf	(lcd_4bit_send_cmd@lcd+1)^0,c
  3097   00F724  0E01               	movlw	1
  3098   00F726  6E16               	movwf	lcd_4bit_send_cmd@cmd^0,c
  3099   00F728  ECDA  F072         	call	_lcd_4bit_send_cmd	;wreg free
  3100   00F72C  0E4B               	movlw	low _lcd
  3101   00F72E  6E1F               	movwf	lcd_4bit_send_string_data_pos@lcd^0,c
  3102   00F730  0E00               	movlw	high _lcd
  3103   00F732  6E20               	movwf	(lcd_4bit_send_string_data_pos@lcd+1)^0,c
  3104   00F734  0E79               	movlw	low STR_10
  3105   00F736  6E21               	movwf	lcd_4bit_send_string_data_pos@string^0,c
  3106   00F738  0EFE               	movlw	high STR_10
  3107   00F73A  6E22               	movwf	(lcd_4bit_send_string_data_pos@string+1)^0,c
  3108   00F73C  0E01               	movlw	1
  3109   00F73E  6E23               	movwf	lcd_4bit_send_string_data_pos@row^0,c
  3110   00F740  0E01               	movlw	1
  3111   00F742  6E24               	movwf	lcd_4bit_send_string_data_pos@col^0,c
  3112   00F744  EC6A  F076         	call	_lcd_4bit_send_string_data_pos	;wreg free
  3113   00F748                     
  3114                           ;App.c: 168:     _delay((unsigned long)((100)*(8000000/4000.0)));
  3115   00F748  0E02               	movlw	2
  3116   00F74A  6E2D               	movwf	(??_set_password+1)^0,c
  3117   00F74C  0E04               	movlw	4
  3118   00F74E  6E2C               	movwf	??_set_password^0,c
  3119   00F750  0EBA               	movlw	186
  3120   00F752                     u2827:
  3121   00F752  2EE8               	decfsz	wreg,f,c
  3122   00F754  D7FE               	bra	u2827
  3123   00F756  2E2C               	decfsz	??_set_password^0,f,c
  3124   00F758  D7FC               	bra	u2827
  3125   00F75A  2E2D               	decfsz	(??_set_password+1)^0,f,c
  3126   00F75C  D7FA               	bra	u2827
  3127   00F75E  F000 F000          	nop2	
  3128   00F762  0E2E               	movlw	low set_password@Temp_Password_1
  3129   00F764  6E25               	movwf	enter_your_password@_password^0,c
  3130   00F766  0E00               	movlw	high set_password@Temp_Password_1
  3131   00F768  6E26               	movwf	(enter_your_password@_password+1)^0,c
  3132   00F76A  ECCC  F076         	call	_enter_your_password	;wreg free
  3133   00F76E                     
  3134                           ;App.c: 171:     ret = password_compare_with_eeprom(Temp_Password_1,&compare_status);
  3135   00F76E  0E2E               	movlw	low set_password@Temp_Password_1
  3136   00F770  6E05               	movwf	password_compare_with_eeprom@Password^0,c
  3137   00F772  0E00               	movlw	high set_password@Temp_Password_1
  3138   00F774  6E06               	movwf	(password_compare_with_eeprom@Password+1)^0,c
  3139   00F776  0E42               	movlw	low set_password@compare_status
  3140   00F778  6E07               	movwf	password_compare_with_eeprom@compare_status^0,c
  3141   00F77A  0E00               	movlw	high set_password@compare_status
  3142   00F77C  6E08               	movwf	(password_compare_with_eeprom@compare_status+1)^0,c
  3143   00F77E  ECB3  F075         	call	_password_compare_with_eeprom	;wreg free
  3144   00F782  6E43               	movwf	set_password@ret^0,c
  3145                           
  3146                           ;App.c: 173:     switch (compare_status){
  3147   00F784  EFB9  F07C         	goto	l3680
  3148   00F788                     l3622:
  3149   00F788  0E4B               	movlw	low _lcd
  3150   00F78A  6E14               	movwf	lcd_4bit_send_cmd@lcd^0,c
  3151   00F78C  0E00               	movlw	high _lcd
  3152   00F78E  6E15               	movwf	(lcd_4bit_send_cmd@lcd+1)^0,c
  3153   00F790  0E01               	movlw	1
  3154   00F792  6E16               	movwf	lcd_4bit_send_cmd@cmd^0,c
  3155   00F794  ECDA  F072         	call	_lcd_4bit_send_cmd	;wreg free
  3156   00F798  0E4B               	movlw	low _lcd
  3157   00F79A  6E1F               	movwf	lcd_4bit_send_string_data_pos@lcd^0,c
  3158   00F79C  0E00               	movlw	high _lcd
  3159   00F79E  6E20               	movwf	(lcd_4bit_send_string_data_pos@lcd+1)^0,c
  3160   00F7A0  0E8D               	movlw	low STR_11
  3161   00F7A2  6E21               	movwf	lcd_4bit_send_string_data_pos@string^0,c
  3162   00F7A4  0EFE               	movlw	high STR_11
  3163   00F7A6  6E22               	movwf	(lcd_4bit_send_string_data_pos@string+1)^0,c
  3164   00F7A8  0E01               	movlw	1
  3165   00F7AA  6E23               	movwf	lcd_4bit_send_string_data_pos@row^0,c
  3166   00F7AC  0E01               	movlw	1
  3167   00F7AE  6E24               	movwf	lcd_4bit_send_string_data_pos@col^0,c
  3168   00F7B0  EC6A  F076         	call	_lcd_4bit_send_string_data_pos	;wreg free
  3169   00F7B4                     
  3170                           ;App.c: 177:             _delay((unsigned long)((500)*(8000000/4000.0)));
  3171   00F7B4  0E06               	movlw	6
  3172   00F7B6  6E2D               	movwf	(??_set_password+1)^0,c
  3173   00F7B8  0E13               	movlw	19
  3174   00F7BA  6E2C               	movwf	??_set_password^0,c
  3175   00F7BC  0EAE               	movlw	174
  3176   00F7BE                     u2837:
  3177   00F7BE  2EE8               	decfsz	wreg,f,c
  3178   00F7C0  D7FE               	bra	u2837
  3179   00F7C2  2E2C               	decfsz	??_set_password^0,f,c
  3180   00F7C4  D7FC               	bra	u2837
  3181   00F7C6  2E2D               	decfsz	(??_set_password+1)^0,f,c
  3182   00F7C8  D7FA               	bra	u2837
  3183   00F7CA                     
  3184                           ;App.c: 178:             ret = enter_your_password(Temp_Password_2);
  3185   00F7CA  0E38               	movlw	low set_password@Temp_Password_2
  3186   00F7CC  6E25               	movwf	enter_your_password@_password^0,c
  3187   00F7CE  0E00               	movlw	high set_password@Temp_Password_2
  3188   00F7D0  6E26               	movwf	(enter_your_password@_password+1)^0,c
  3189   00F7D2  ECCC  F076         	call	_enter_your_password	;wreg free
  3190   00F7D6  6E43               	movwf	set_password@ret^0,c
  3191   00F7D8                     
  3192                           ;App.c: 179:             if ((STD_ReturnType)0x01==ret){
  3193   00F7D8  0443               	decf	set_password@ret^0,w,c
  3194   00F7DA  A4D8               	btfss	status,2,c
  3195   00F7DC  EFF2  F07B         	goto	u2041
  3196   00F7E0  EFF4  F07B         	goto	u2040
  3197   00F7E4                     u2041:
  3198   00F7E4  EF43  F07C         	goto	l3650
  3199   00F7E8                     u2040:
  3200   00F7E8  0E0A               	movlw	10
  3201   00F7EA  ECA5  F070         	call	_clear_password_from_eeprom
  3202   00F7EE  0E38               	movlw	low set_password@Temp_Password_2
  3203   00F7F0  6E05               	movwf	write_the_password_in_eeprom@password^0,c
  3204   00F7F2  0E00               	movlw	high set_password@Temp_Password_2
  3205   00F7F4  6E06               	movwf	(write_the_password_in_eeprom@password+1)^0,c
  3206   00F7F6  0E0A               	movlw	10
  3207   00F7F8  6E07               	movwf	write_the_password_in_eeprom@password_length^0,c
  3208   00F7FA  EC0C  F072         	call	_write_the_password_in_eeprom	;wreg free
  3209   00F7FE  0E55               	movlw	low _green_led
  3210   00F800  6E0B               	movwf	Led_turn_on@led^0,c
  3211   00F802  0E00               	movlw	high _green_led
  3212   00F804  6E0C               	movwf	(Led_turn_on@led+1)^0,c
  3213   00F806  EC10  F074         	call	_Led_turn_on	;wreg free
  3214   00F80A  0E4B               	movlw	low _lcd
  3215   00F80C  6E14               	movwf	lcd_4bit_send_cmd@lcd^0,c
  3216   00F80E  0E00               	movlw	high _lcd
  3217   00F810  6E15               	movwf	(lcd_4bit_send_cmd@lcd+1)^0,c
  3218   00F812  0E01               	movlw	1
  3219   00F814  6E16               	movwf	lcd_4bit_send_cmd@cmd^0,c
  3220   00F816  ECDA  F072         	call	_lcd_4bit_send_cmd	;wreg free
  3221   00F81A  0E4B               	movlw	low _lcd
  3222   00F81C  6E1F               	movwf	lcd_4bit_send_string_data_pos@lcd^0,c
  3223   00F81E  0E00               	movlw	high _lcd
  3224   00F820  6E20               	movwf	(lcd_4bit_send_string_data_pos@lcd+1)^0,c
  3225   00F822  0EC0               	movlw	low STR_12
  3226   00F824  6E21               	movwf	lcd_4bit_send_string_data_pos@string^0,c
  3227   00F826  0EFF               	movlw	high STR_12
  3228   00F828  6E22               	movwf	(lcd_4bit_send_string_data_pos@string+1)^0,c
  3229   00F82A  0E01               	movlw	1
  3230   00F82C  6E23               	movwf	lcd_4bit_send_string_data_pos@row^0,c
  3231   00F82E  0E01               	movlw	1
  3232   00F830  6E24               	movwf	lcd_4bit_send_string_data_pos@col^0,c
  3233   00F832  EC6A  F076         	call	_lcd_4bit_send_string_data_pos	;wreg free
  3234   00F836  0E4B               	movlw	low _lcd
  3235   00F838  6E1F               	movwf	lcd_4bit_send_string_data_pos@lcd^0,c
  3236   00F83A  0E00               	movlw	high _lcd
  3237   00F83C  6E20               	movwf	(lcd_4bit_send_string_data_pos@lcd+1)^0,c
  3238   00F83E  0ECD               	movlw	low STR_13
  3239   00F840  6E21               	movwf	lcd_4bit_send_string_data_pos@string^0,c
  3240   00F842  0EFF               	movlw	high STR_13
  3241   00F844  6E22               	movwf	(lcd_4bit_send_string_data_pos@string+1)^0,c
  3242   00F846  0E02               	movlw	2
  3243   00F848  6E23               	movwf	lcd_4bit_send_string_data_pos@row^0,c
  3244   00F84A  0E01               	movlw	1
  3245   00F84C  6E24               	movwf	lcd_4bit_send_string_data_pos@col^0,c
  3246   00F84E  EC6A  F076         	call	_lcd_4bit_send_string_data_pos	;wreg free
  3247   00F852                     
  3248                           ;App.c: 186:                 _delay((unsigned long)((1000)*(8000000/4000.0)));
  3249   00F852  0E0B               	movlw	11
  3250   00F854  6E2D               	movwf	(??_set_password+1)^0,c
  3251   00F856  0E26               	movlw	38
  3252   00F858  6E2C               	movwf	??_set_password^0,c
  3253   00F85A  0E5E               	movlw	94
  3254   00F85C                     u2847:
  3255   00F85C  2EE8               	decfsz	wreg,f,c
  3256   00F85E  D7FE               	bra	u2847
  3257   00F860  2E2C               	decfsz	??_set_password^0,f,c
  3258   00F862  D7FC               	bra	u2847
  3259   00F864  2E2D               	decfsz	(??_set_password+1)^0,f,c
  3260   00F866  D7FA               	bra	u2847
  3261   00F868  0E4B               	movlw	low _lcd
  3262   00F86A  6E14               	movwf	lcd_4bit_send_cmd@lcd^0,c
  3263   00F86C  0E00               	movlw	high _lcd
  3264   00F86E  6E15               	movwf	(lcd_4bit_send_cmd@lcd+1)^0,c
  3265   00F870  0E01               	movlw	1
  3266   00F872  6E16               	movwf	lcd_4bit_send_cmd@cmd^0,c
  3267   00F874  ECDA  F072         	call	_lcd_4bit_send_cmd	;wreg free
  3268   00F878                     
  3269                           ;App.c: 188:                 ret = Led_turn_off(&green_led);
  3270   00F878  0E55               	movlw	low _green_led
  3271   00F87A  6E0B               	movwf	Led_turn_off@led^0,c
  3272   00F87C  0E00               	movlw	high _green_led
  3273   00F87E  6E0C               	movwf	(Led_turn_off@led+1)^0,c
  3274   00F880  ECCF  F073         	call	_Led_turn_off	;wreg free
  3275   00F884  6E43               	movwf	set_password@ret^0,c
  3276   00F886                     l3650:
  3277                           
  3278                           ;App.c: 190:             wrong_attempts_set_pass='0';
  3279   00F886  0E30               	movlw	48
  3280   00F888  6E49               	movwf	_wrong_attempts_set_pass^0,c
  3281                           
  3282                           ;App.c: 191:             break;
  3283   00F88A  EFCE  F07C         	goto	l3682
  3284   00F88E                     l3652:
  3285                           
  3286                           ;App.c: 193:             wrong_attempts_set_pass++;
  3287   00F88E  2A49               	incf	_wrong_attempts_set_pass^0,f,c
  3288   00F890  0E54               	movlw	low _red_led
  3289   00F892  6E0B               	movwf	Led_turn_on@led^0,c
  3290   00F894  0E00               	movlw	high _red_led
  3291   00F896  6E0C               	movwf	(Led_turn_on@led+1)^0,c
  3292   00F898  EC10  F074         	call	_Led_turn_on	;wreg free
  3293   00F89C  0E53               	movlw	low _buzzer
  3294   00F89E  6E0B               	movwf	buzzer_turn_on@buzzer_obj^0,c
  3295   00F8A0  0E00               	movlw	high _buzzer
  3296   00F8A2  6E0C               	movwf	(buzzer_turn_on@buzzer_obj+1)^0,c
  3297   00F8A4  EC92  F074         	call	_buzzer_turn_on	;wreg free
  3298   00F8A8  0E4B               	movlw	low _lcd
  3299   00F8AA  6E14               	movwf	lcd_4bit_send_cmd@lcd^0,c
  3300   00F8AC  0E00               	movlw	high _lcd
  3301   00F8AE  6E15               	movwf	(lcd_4bit_send_cmd@lcd+1)^0,c
  3302   00F8B0  0E01               	movlw	1
  3303   00F8B2  6E16               	movwf	lcd_4bit_send_cmd@cmd^0,c
  3304   00F8B4  ECDA  F072         	call	_lcd_4bit_send_cmd	;wreg free
  3305   00F8B8  0E4B               	movlw	low _lcd
  3306   00F8BA  6E1F               	movwf	lcd_4bit_send_string_data_pos@lcd^0,c
  3307   00F8BC  0E00               	movlw	high _lcd
  3308   00F8BE  6E20               	movwf	(lcd_4bit_send_string_data_pos@lcd+1)^0,c
  3309   00F8C0  0EB4               	movlw	low STR_7
  3310   00F8C2  6E21               	movwf	lcd_4bit_send_string_data_pos@string^0,c
  3311   00F8C4  0EFE               	movlw	high STR_7
  3312   00F8C6  6E22               	movwf	(lcd_4bit_send_string_data_pos@string+1)^0,c
  3313   00F8C8  0E01               	movlw	1
  3314   00F8CA  6E23               	movwf	lcd_4bit_send_string_data_pos@row^0,c
  3315   00F8CC  0E01               	movlw	1
  3316   00F8CE  6E24               	movwf	lcd_4bit_send_string_data_pos@col^0,c
  3317   00F8D0  EC6A  F076         	call	_lcd_4bit_send_string_data_pos	;wreg free
  3318   00F8D4  0E4B               	movlw	low _lcd
  3319   00F8D6  6E1F               	movwf	lcd_4bit_send_string_data_pos@lcd^0,c
  3320   00F8D8  0E00               	movlw	high _lcd
  3321   00F8DA  6E20               	movwf	(lcd_4bit_send_string_data_pos@lcd+1)^0,c
  3322   00F8DC  0E80               	movlw	low STR_8
  3323   00F8DE  6E21               	movwf	lcd_4bit_send_string_data_pos@string^0,c
  3324   00F8E0  0EFF               	movlw	high STR_8
  3325   00F8E2  6E22               	movwf	(lcd_4bit_send_string_data_pos@string+1)^0,c
  3326   00F8E4  0E02               	movlw	2
  3327   00F8E6  6E23               	movwf	lcd_4bit_send_string_data_pos@row^0,c
  3328   00F8E8  0E01               	movlw	1
  3329   00F8EA  6E24               	movwf	lcd_4bit_send_string_data_pos@col^0,c
  3330   00F8EC  EC6A  F076         	call	_lcd_4bit_send_string_data_pos	;wreg free
  3331   00F8F0  0E4B               	movlw	low _lcd
  3332   00F8F2  6E1F               	movwf	lcd_4bit_send_string_data_pos@lcd^0,c
  3333   00F8F4  0E00               	movlw	high _lcd
  3334   00F8F6  6E20               	movwf	(lcd_4bit_send_string_data_pos@lcd+1)^0,c
  3335   00F8F8  0EEB               	movlw	low STR_9
  3336   00F8FA  6E21               	movwf	lcd_4bit_send_string_data_pos@string^0,c
  3337   00F8FC  0EFF               	movlw	high STR_9
  3338   00F8FE  6E22               	movwf	(lcd_4bit_send_string_data_pos@string+1)^0,c
  3339   00F900  0E03               	movlw	3
  3340   00F902  6E23               	movwf	lcd_4bit_send_string_data_pos@row^0,c
  3341   00F904  0E01               	movlw	1
  3342   00F906  6E24               	movwf	lcd_4bit_send_string_data_pos@col^0,c
  3343   00F908  EC6A  F076         	call	_lcd_4bit_send_string_data_pos	;wreg free
  3344   00F90C  0E4B               	movlw	low _lcd
  3345   00F90E  6E1F               	movwf	lcd_4bit_send_char_data_pos@lcd^0,c
  3346   00F910  0E00               	movlw	high _lcd
  3347   00F912  6E20               	movwf	(lcd_4bit_send_char_data_pos@lcd+1)^0,c
  3348   00F914  C049  F021         	movff	_wrong_attempts_set_pass,lcd_4bit_send_char_data_pos@data
  3349   00F918  0E03               	movlw	3
  3350   00F91A  6E22               	movwf	lcd_4bit_send_char_data_pos@row^0,c
  3351   00F91C  0E02               	movlw	2
  3352   00F91E  6E23               	movwf	lcd_4bit_send_char_data_pos@col^0,c
  3353   00F920  ECD3  F074         	call	_lcd_4bit_send_char_data_pos	;wreg free
  3354   00F924                     
  3355                           ;App.c: 201:             _delay((unsigned long)((2000)*(8000000/4000.0)));
  3356   00F924  0E15               	movlw	21
  3357   00F926  6E2D               	movwf	(??_set_password+1)^0,c
  3358   00F928  0E4B               	movlw	75
  3359   00F92A  6E2C               	movwf	??_set_password^0,c
  3360   00F92C  0EBE               	movlw	190
  3361   00F92E                     u2857:
  3362   00F92E  2EE8               	decfsz	wreg,f,c
  3363   00F930  D7FE               	bra	u2857
  3364   00F932  2E2C               	decfsz	??_set_password^0,f,c
  3365   00F934  D7FC               	bra	u2857
  3366   00F936  2E2D               	decfsz	(??_set_password+1)^0,f,c
  3367   00F938  D7FA               	bra	u2857
  3368   00F93A  F000 F000          	nop2	
  3369   00F93E  0E53               	movlw	low _buzzer
  3370   00F940  6E0B               	movwf	buzzer_turn_off@buzzer_obj^0,c
  3371   00F942  0E00               	movlw	high _buzzer
  3372   00F944  6E0C               	movwf	(buzzer_turn_off@buzzer_obj+1)^0,c
  3373   00F946  EC51  F074         	call	_buzzer_turn_off	;wreg free
  3374   00F94A                     
  3375                           ;App.c: 203:             ret = Led_turn_off(&red_led);
  3376   00F94A  0E54               	movlw	low _red_led
  3377   00F94C  6E0B               	movwf	Led_turn_off@led^0,c
  3378   00F94E  0E00               	movlw	high _red_led
  3379   00F950  6E0C               	movwf	(Led_turn_off@led+1)^0,c
  3380   00F952  ECCF  F073         	call	_Led_turn_off	;wreg free
  3381   00F956  6E43               	movwf	set_password@ret^0,c
  3382   00F958                     
  3383                           ;App.c: 204:             if(wrong_attempts_set_pass<'3'){
  3384   00F958  0E33               	movlw	51
  3385   00F95A  6049               	cpfslt	_wrong_attempts_set_pass^0,c
  3386   00F95C  EFB2  F07C         	goto	u2051
  3387   00F960  EFB4  F07C         	goto	u2050
  3388   00F964                     u2051:
  3389   00F964  EFCE  F07C         	goto	l3682
  3390   00F968                     u2050:
  3391   00F968                     
  3392                           ;App.c: 205:                 ret = try_again_after_5_sec();
  3393   00F968  ECBD  F077         	call	_try_again_after_5_sec	;wreg free
  3394   00F96C  6E43               	movwf	set_password@ret^0,c
  3395   00F96E  EFCE  F07C         	goto	l3682
  3396   00F972                     l3680:
  3397   00F972  5042               	movf	set_password@compare_status^0,w,c
  3398   00F974  6E2C               	movwf	??_set_password^0,c
  3399   00F976  6A2D               	clrf	(??_set_password+1)^0,c
  3400                           
  3401                           ; Switch on 2 bytes has been partitioned into a top level switch of size 1, and 1 sub-sw
      +                          itches
  3402                           ; Switch size 1, requested type "simple"
  3403                           ; Number of cases is 1, Range of values is 0 to 0
  3404                           ; switch strategies available:
  3405                           ; Name         Instructions Cycles
  3406                           ; simple_byte            4     3 (average)
  3407                           ;	Chosen strategy is simple_byte
  3408   00F978  502D               	movf	(??_set_password+1)^0,w,c
  3409   00F97A  0A00               	xorlw	0	; case 0
  3410   00F97C  B4D8               	btfsc	status,2,c
  3411   00F97E  EFC3  F07C         	goto	l4452
  3412   00F982  EFCE  F07C         	goto	l3682
  3413   00F986                     l4452:
  3414                           
  3415                           ; Switch size 1, requested type "simple"
  3416                           ; Number of cases is 2, Range of values is 0 to 1
  3417                           ; switch strategies available:
  3418                           ; Name         Instructions Cycles
  3419                           ; simple_byte            7     4 (average)
  3420                           ;	Chosen strategy is simple_byte
  3421   00F986  502C               	movf	??_set_password^0,w,c
  3422   00F988  0A00               	xorlw	0	; case 0
  3423   00F98A  B4D8               	btfsc	status,2,c
  3424   00F98C  EF47  F07C         	goto	l3652
  3425   00F990  0A01               	xorlw	1	; case 1
  3426   00F992  B4D8               	btfsc	status,2,c
  3427   00F994  EFC4  F07B         	goto	l3622
  3428   00F998  EFCE  F07C         	goto	l3682
  3429   00F99C                     l3682:
  3430                           
  3431                           ;App.c: 211:     return ret;
  3432   00F99C  5043               	movf	set_password@ret^0,w,c
  3433   00F99E  0012               	return		;funcret
  3434   00F9A0                     __end_of_set_password:
  3435                           	callstack 0
  3436                           
  3437 ;; *************** function _write_the_password_in_eeprom *****************
  3438 ;; Defined at:
  3439 ;;		line 477 in file "App.c"
  3440 ;; Parameters:    Size  Location     Type
  3441 ;;  password        2    4[COMRAM] PTR unsigned char 
  3442 ;;		 -> set_passowrd_frist_time@Temp_Password_1(10), set_password@Temp_Password_2(10), 
  3443 ;;  password_len    1    6[COMRAM] unsigned char 
  3444 ;; Auto vars:     Size  Location     Type
  3445 ;;  temp_passwor    1    8[COMRAM] unsigned char 
  3446 ;;  ret             1    7[COMRAM] unsigned char 
  3447 ;; Return value:  Size  Location     Type
  3448 ;;                  1    wreg      unsigned char 
  3449 ;; Registers used:
  3450 ;;		wreg, fsr2l, fsr2h, status,2, status,0, cstack
  3451 ;; Tracked objects:
  3452 ;;		On entry : 0/0
  3453 ;;		On exit  : 0/0
  3454 ;;		Unchanged: 0/0
  3455 ;; Data sizes:     COMRAM   BANK0   BANK1   BANK2   BANK3   BANK4   BANK5   BANK6   BANK7   BANK8   BANK9  BANK10  BANK1
      +1  BANK12  BANK13  BANK14  BANK15
  3456 ;;      Params:         3       0       0       0       0       0       0       0       0       0       0       0       
      +0       0       0       0       0
  3457 ;;      Locals:         2       0       0       0       0       0       0       0       0       0       0       0       
      +0       0       0       0       0
  3458 ;;      Temps:          0       0       0       0       0       0       0       0       0       0       0       0       
      +0       0       0       0       0
  3459 ;;      Totals:         5       0       0       0       0       0       0       0       0       0       0       0       
      +0       0       0       0       0
  3460 ;;Total ram usage:        5 bytes
  3461 ;; Hardware stack levels used: 1
  3462 ;; Hardware stack levels required when called: 1
  3463 ;; This function calls:
  3464 ;;		_EEPROM_WRITE_BYTE
  3465 ;; This function is called by:
  3466 ;;		_set_password
  3467 ;;		_set_passowrd_frist_time
  3468 ;; This function uses a non-reentrant model
  3469 ;;
  3470                           
  3471                           	psect	text10
  3472   00E418                     __ptext10:
  3473                           	callstack 0
  3474   00E418                     _write_the_password_in_eeprom:
  3475                           	callstack 28
  3476   00E418                     
  3477                           ;App.c: 478:     STD_ReturnType ret = (STD_ReturnType)0x01;
  3478   00E418  0E01               	movlw	1
  3479   00E41A  6E08               	movwf	write_the_password_in_eeprom@ret^0,c
  3480   00E41C                     
  3481                           ;App.c: 479:     if (((void*)0) == password){
  3482   00E41C  5005               	movf	write_the_password_in_eeprom@password^0,w,c
  3483   00E41E  1006               	iorwf	(write_the_password_in_eeprom@password+1)^0,w,c
  3484   00E420  A4D8               	btfss	status,2,c
  3485   00E422  EF15  F072         	goto	u1981
  3486   00E426  EF17  F072         	goto	u1980
  3487   00E42A                     u1981:
  3488   00E42A  EF1B  F072         	goto	l3554
  3489   00E42E                     u1980:
  3490   00E42E                     
  3491                           ;App.c: 480:         ret = (STD_ReturnType)0x00;
  3492   00E42E  0E00               	movlw	0
  3493   00E430  6E08               	movwf	write_the_password_in_eeprom@ret^0,c
  3494                           
  3495                           ;App.c: 481:     }
  3496   00E432  EF37  F072         	goto	l3562
  3497   00E436                     l3554:
  3498                           
  3499                           ;App.c: 483:         uint8 temp_password_digits_counter = 0;
  3500   00E436  0E00               	movlw	0
  3501   00E438  6E09               	movwf	write_the_password_in_eeprom@temp_password_digits_counter^0,c
  3502                           
  3503                           ;App.c: 484:         while(temp_password_digits_counter < password_length){
  3504   00E43A  EF2E  F072         	goto	l3560
  3505   00E43E                     l3556:
  3506                           
  3507                           ;App.c: 485:             ret = EEPROM_WRITE_BYTE((0x0000+temp_password_digits_counter),p
      +                          assword[temp_password_digits_counter]);
  3508   00E43E  C009  F001         	movff	write_the_password_in_eeprom@temp_password_digits_counter,EEPROM_WRITE_BYTE@bAdd
  3509   00E442  6A02               	clrf	(EEPROM_WRITE_BYTE@bAdd+1)^0,c
  3510   00E444  5009               	movf	write_the_password_in_eeprom@temp_password_digits_counter^0,w,c
  3511   00E446  2405               	addwf	write_the_password_in_eeprom@password^0,w,c
  3512   00E448  6ED9               	movwf	fsr2l,c
  3513   00E44A  0E00               	movlw	0
  3514   00E44C  2006               	addwfc	(write_the_password_in_eeprom@password+1)^0,w,c
  3515   00E44E  6EDA               	movwf	fsr2h,c
  3516   00E450  50DF               	movf	indf2,w,c
  3517   00E452  6E03               	movwf	EEPROM_WRITE_BYTE@data^0,c
  3518   00E454  ECC0  F071         	call	_EEPROM_WRITE_BYTE	;wreg free
  3519   00E458  6E08               	movwf	write_the_password_in_eeprom@ret^0,c
  3520   00E45A                     
  3521                           ;App.c: 486:             temp_password_digits_counter++;
  3522   00E45A  2A09               	incf	write_the_password_in_eeprom@temp_password_digits_counter^0,f,c
  3523   00E45C                     l3560:
  3524                           
  3525                           ;App.c: 484:         while(temp_password_digits_counter < password_length){
  3526   00E45C  5007               	movf	write_the_password_in_eeprom@password_length^0,w,c
  3527   00E45E  5C09               	subwf	write_the_password_in_eeprom@temp_password_digits_counter^0,w,c
  3528   00E460  A0D8               	btfss	status,0,c
  3529   00E462  EF35  F072         	goto	u1991
  3530   00E466  EF37  F072         	goto	u1990
  3531   00E46A                     u1991:
  3532   00E46A  EF1F  F072         	goto	l3556
  3533   00E46E                     u1990:
  3534   00E46E                     l3562:
  3535                           
  3536                           ;App.c: 489:     return ret;
  3537   00E46E  5008               	movf	write_the_password_in_eeprom@ret^0,w,c
  3538   00E470  0012               	return		;funcret
  3539   00E472                     __end_of_write_the_password_in_eeprom:
  3540                           	callstack 0
  3541                           
  3542 ;; *************** function _try_again_after_5_sec *****************
  3543 ;; Defined at:
  3544 ;;		line 498 in file "App.c"
  3545 ;; Parameters:    Size  Location     Type
  3546 ;;		None
  3547 ;; Auto vars:     Size  Location     Type
  3548 ;;  ret             1   40[COMRAM] unsigned char 
  3549 ;; Return value:  Size  Location     Type
  3550 ;;                  1    wreg      unsigned char 
  3551 ;; Registers used:
  3552 ;;		wreg, fsr2l, fsr2h, status,2, status,0, tblptrl, tblptrh, tblptru, prodl, prodh, cstack
  3553 ;; Tracked objects:
  3554 ;;		On entry : 0/0
  3555 ;;		On exit  : 0/0
  3556 ;;		Unchanged: 0/0
  3557 ;; Data sizes:     COMRAM   BANK0   BANK1   BANK2   BANK3   BANK4   BANK5   BANK6   BANK7   BANK8   BANK9  BANK10  BANK1
      +1  BANK12  BANK13  BANK14  BANK15
  3558 ;;      Params:         0       0       0       0       0       0       0       0       0       0       0       0       
      +0       0       0       0       0
  3559 ;;      Locals:         1       0       0       0       0       0       0       0       0       0       0       0       
      +0       0       0       0       0
  3560 ;;      Temps:          2       0       0       0       0       0       0       0       0       0       0       0       
      +0       0       0       0       0
  3561 ;;      Totals:         3       0       0       0       0       0       0       0       0       0       0       0       
      +0       0       0       0       0
  3562 ;;Total ram usage:        3 bytes
  3563 ;; Hardware stack levels used: 1
  3564 ;; Hardware stack levels required when called: 5
  3565 ;; This function calls:
  3566 ;;		_lcd_4bit_send_cmd
  3567 ;;		_lcd_4bit_send_string_data_pos
  3568 ;; This function is called by:
  3569 ;;		_open_the_safe_program
  3570 ;;		_set_password
  3571 ;;		_set_passowrd_frist_time
  3572 ;; This function uses a non-reentrant model
  3573 ;;
  3574                           
  3575                           	psect	text11
  3576   00EF7A                     __ptext11:
  3577                           	callstack 0
  3578   00EF7A                     _try_again_after_5_sec:
  3579                           	callstack 24
  3580   00EF7A  0E4B               	movlw	low _lcd
  3581   00EF7C  6E14               	movwf	lcd_4bit_send_cmd@lcd^0,c
  3582   00EF7E  0E00               	movlw	high _lcd
  3583   00EF80  6E15               	movwf	(lcd_4bit_send_cmd@lcd+1)^0,c
  3584   00EF82  0E01               	movlw	1
  3585   00EF84  6E16               	movwf	lcd_4bit_send_cmd@cmd^0,c
  3586   00EF86  ECDA  F072         	call	_lcd_4bit_send_cmd	;wreg free
  3587   00EF8A  0E4B               	movlw	low _lcd
  3588   00EF8C  6E1F               	movwf	lcd_4bit_send_string_data_pos@lcd^0,c
  3589   00EF8E  0E00               	movlw	high _lcd
  3590   00EF90  6E20               	movwf	(lcd_4bit_send_string_data_pos@lcd+1)^0,c
  3591   00EF92  0E13               	movlw	low STR_34
  3592   00EF94  6E21               	movwf	lcd_4bit_send_string_data_pos@string^0,c
  3593   00EF96  0EFF               	movlw	high STR_34
  3594   00EF98  6E22               	movwf	(lcd_4bit_send_string_data_pos@string+1)^0,c
  3595   00EF9A  0E01               	movlw	1
  3596   00EF9C  6E23               	movwf	lcd_4bit_send_string_data_pos@row^0,c
  3597   00EF9E  0E01               	movlw	1
  3598   00EFA0  6E24               	movwf	lcd_4bit_send_string_data_pos@col^0,c
  3599   00EFA2  EC6A  F076         	call	_lcd_4bit_send_string_data_pos	;wreg free
  3600   00EFA6                     
  3601                           ;App.c: 502:     _delay((unsigned long)((1000)*(8000000/4000.0)));
  3602   00EFA6  0E0B               	movlw	11
  3603   00EFA8  6E28               	movwf	(??_try_again_after_5_sec+1)^0,c
  3604   00EFAA  0E26               	movlw	38
  3605   00EFAC  6E27               	movwf	??_try_again_after_5_sec^0,c
  3606   00EFAE  0E5E               	movlw	94
  3607   00EFB0                     u2867:
  3608   00EFB0  2EE8               	decfsz	wreg,f,c
  3609   00EFB2  D7FE               	bra	u2867
  3610   00EFB4  2E27               	decfsz	??_try_again_after_5_sec^0,f,c
  3611   00EFB6  D7FC               	bra	u2867
  3612   00EFB8  2E28               	decfsz	(??_try_again_after_5_sec+1)^0,f,c
  3613   00EFBA  D7FA               	bra	u2867
  3614   00EFBC  0E4B               	movlw	low _lcd
  3615   00EFBE  6E1F               	movwf	lcd_4bit_send_string_data_pos@lcd^0,c
  3616   00EFC0  0E00               	movlw	high _lcd
  3617   00EFC2  6E20               	movwf	(lcd_4bit_send_string_data_pos@lcd+1)^0,c
  3618   00EFC4  0E00               	movlw	low STR_35
  3619   00EFC6  6E21               	movwf	lcd_4bit_send_string_data_pos@string^0,c
  3620   00EFC8  0EFF               	movlw	high STR_35
  3621   00EFCA  6E22               	movwf	(lcd_4bit_send_string_data_pos@string+1)^0,c
  3622   00EFCC  0E01               	movlw	1
  3623   00EFCE  6E23               	movwf	lcd_4bit_send_string_data_pos@row^0,c
  3624   00EFD0  0E01               	movlw	1
  3625   00EFD2  6E24               	movwf	lcd_4bit_send_string_data_pos@col^0,c
  3626   00EFD4  EC6A  F076         	call	_lcd_4bit_send_string_data_pos	;wreg free
  3627   00EFD8                     
  3628                           ;App.c: 504:     _delay((unsigned long)((1000)*(8000000/4000.0)));
  3629   00EFD8  0E0B               	movlw	11
  3630   00EFDA  6E28               	movwf	(??_try_again_after_5_sec+1)^0,c
  3631   00EFDC  0E26               	movlw	38
  3632   00EFDE  6E27               	movwf	??_try_again_after_5_sec^0,c
  3633   00EFE0  0E5E               	movlw	94
  3634   00EFE2                     u2877:
  3635   00EFE2  2EE8               	decfsz	wreg,f,c
  3636   00EFE4  D7FE               	bra	u2877
  3637   00EFE6  2E27               	decfsz	??_try_again_after_5_sec^0,f,c
  3638   00EFE8  D7FC               	bra	u2877
  3639   00EFEA  2E28               	decfsz	(??_try_again_after_5_sec+1)^0,f,c
  3640   00EFEC  D7FA               	bra	u2877
  3641   00EFEE  0E4B               	movlw	low _lcd
  3642   00EFF0  6E1F               	movwf	lcd_4bit_send_string_data_pos@lcd^0,c
  3643   00EFF2  0E00               	movlw	high _lcd
  3644   00EFF4  6E20               	movwf	(lcd_4bit_send_string_data_pos@lcd+1)^0,c
  3645   00EFF6  0EED               	movlw	low STR_36
  3646   00EFF8  6E21               	movwf	lcd_4bit_send_string_data_pos@string^0,c
  3647   00EFFA  0EFE               	movlw	high STR_36
  3648   00EFFC  6E22               	movwf	(lcd_4bit_send_string_data_pos@string+1)^0,c
  3649   00EFFE  0E01               	movlw	1
  3650   00F000  6E23               	movwf	lcd_4bit_send_string_data_pos@row^0,c
  3651   00F002  0E01               	movlw	1
  3652   00F004  6E24               	movwf	lcd_4bit_send_string_data_pos@col^0,c
  3653   00F006  EC6A  F076         	call	_lcd_4bit_send_string_data_pos	;wreg free
  3654   00F00A                     
  3655                           ;App.c: 506:     _delay((unsigned long)((1000)*(8000000/4000.0)));
  3656   00F00A  0E0B               	movlw	11
  3657   00F00C  6E28               	movwf	(??_try_again_after_5_sec+1)^0,c
  3658   00F00E  0E26               	movlw	38
  3659   00F010  6E27               	movwf	??_try_again_after_5_sec^0,c
  3660   00F012  0E5E               	movlw	94
  3661   00F014                     u2887:
  3662   00F014  2EE8               	decfsz	wreg,f,c
  3663   00F016  D7FE               	bra	u2887
  3664   00F018  2E27               	decfsz	??_try_again_after_5_sec^0,f,c
  3665   00F01A  D7FC               	bra	u2887
  3666   00F01C  2E28               	decfsz	(??_try_again_after_5_sec+1)^0,f,c
  3667   00F01E  D7FA               	bra	u2887
  3668   00F020  0E4B               	movlw	low _lcd
  3669   00F022  6E1F               	movwf	lcd_4bit_send_string_data_pos@lcd^0,c
  3670   00F024  0E00               	movlw	high _lcd
  3671   00F026  6E20               	movwf	(lcd_4bit_send_string_data_pos@lcd+1)^0,c
  3672   00F028  0EDA               	movlw	low STR_37
  3673   00F02A  6E21               	movwf	lcd_4bit_send_string_data_pos@string^0,c
  3674   00F02C  0EFE               	movlw	high STR_37
  3675   00F02E  6E22               	movwf	(lcd_4bit_send_string_data_pos@string+1)^0,c
  3676   00F030  0E01               	movlw	1
  3677   00F032  6E23               	movwf	lcd_4bit_send_string_data_pos@row^0,c
  3678   00F034  0E01               	movlw	1
  3679   00F036  6E24               	movwf	lcd_4bit_send_string_data_pos@col^0,c
  3680   00F038  EC6A  F076         	call	_lcd_4bit_send_string_data_pos	;wreg free
  3681   00F03C                     
  3682                           ;App.c: 508:     _delay((unsigned long)((1000)*(8000000/4000.0)));
  3683   00F03C  0E0B               	movlw	11
  3684   00F03E  6E28               	movwf	(??_try_again_after_5_sec+1)^0,c
  3685   00F040  0E26               	movlw	38
  3686   00F042  6E27               	movwf	??_try_again_after_5_sec^0,c
  3687   00F044  0E5E               	movlw	94
  3688   00F046                     u2897:
  3689   00F046  2EE8               	decfsz	wreg,f,c
  3690   00F048  D7FE               	bra	u2897
  3691   00F04A  2E27               	decfsz	??_try_again_after_5_sec^0,f,c
  3692   00F04C  D7FC               	bra	u2897
  3693   00F04E  2E28               	decfsz	(??_try_again_after_5_sec+1)^0,f,c
  3694   00F050  D7FA               	bra	u2897
  3695   00F052                     
  3696                           ;App.c: 509:     ret = lcd_4bit_send_string_data_pos(&lcd,"Try again after: 1",1,1);
  3697   00F052  0E4B               	movlw	low _lcd
  3698   00F054  6E1F               	movwf	lcd_4bit_send_string_data_pos@lcd^0,c
  3699   00F056  0E00               	movlw	high _lcd
  3700   00F058  6E20               	movwf	(lcd_4bit_send_string_data_pos@lcd+1)^0,c
  3701   00F05A  0EC7               	movlw	low STR_38
  3702   00F05C  6E21               	movwf	lcd_4bit_send_string_data_pos@string^0,c
  3703   00F05E  0EFE               	movlw	high STR_38
  3704   00F060  6E22               	movwf	(lcd_4bit_send_string_data_pos@string+1)^0,c
  3705   00F062  0E01               	movlw	1
  3706   00F064  6E23               	movwf	lcd_4bit_send_string_data_pos@row^0,c
  3707   00F066  0E01               	movlw	1
  3708   00F068  6E24               	movwf	lcd_4bit_send_string_data_pos@col^0,c
  3709   00F06A  EC6A  F076         	call	_lcd_4bit_send_string_data_pos	;wreg free
  3710   00F06E  6E29               	movwf	try_again_after_5_sec@ret^0,c
  3711   00F070                     
  3712                           ;App.c: 510:     _delay((unsigned long)((1000)*(8000000/4000.0)));
  3713   00F070  0E0B               	movlw	11
  3714   00F072  6E28               	movwf	(??_try_again_after_5_sec+1)^0,c
  3715   00F074  0E26               	movlw	38
  3716   00F076  6E27               	movwf	??_try_again_after_5_sec^0,c
  3717   00F078  0E5E               	movlw	94
  3718   00F07A                     u2907:
  3719   00F07A  2EE8               	decfsz	wreg,f,c
  3720   00F07C  D7FE               	bra	u2907
  3721   00F07E  2E27               	decfsz	??_try_again_after_5_sec^0,f,c
  3722   00F080  D7FC               	bra	u2907
  3723   00F082  2E28               	decfsz	(??_try_again_after_5_sec+1)^0,f,c
  3724   00F084  D7FA               	bra	u2907
  3725   00F086                     
  3726                           ;App.c: 511:     return ret;
  3727   00F086  5029               	movf	try_again_after_5_sec@ret^0,w,c
  3728   00F088  0012               	return		;funcret
  3729   00F08A                     __end_of_try_again_after_5_sec:
  3730                           	callstack 0
  3731                           
  3732 ;; *************** function _lcd_4bit_send_string_data_pos *****************
  3733 ;; Defined at:
  3734 ;;		line 145 in file "ECU_Layer/ecu_lcd/ecu_lcd.c"
  3735 ;; Parameters:    Size  Location     Type
  3736 ;;  lcd             2   30[COMRAM] PTR const struct .
  3737 ;;		 -> lcd(6), 
  3738 ;;  string          2   32[COMRAM] PTR unsigned char 
  3739 ;;		 -> STR_38(19), STR_37(19), STR_36(19), STR_35(19), 
  3740 ;;		 -> STR_34(19), STR_33(6), STR_32(21), STR_31(9), 
  3741 ;;		 -> STR_30(18), STR_29(6), STR_28(16), STR_27(8), 
  3742 ;;		 -> STR_26(18), STR_25(13), STR_24(13), STR_23(20), 
  3743 ;;		 -> STR_22(17), STR_21(19), STR_20(16), STR_19(19), 
  3744 ;;		 -> STR_18(18), STR_17(16), STR_16(6), STR_15(16), 
  3745 ;;		 -> STR_14(19), STR_13(13), STR_12(13), STR_11(20), 
  3746 ;;		 -> STR_10(20), STR_9(6), STR_8(16), STR_7(19), 
  3747 ;;		 -> STR_6(21), STR_5(21), STR_4(20), 
  3748 ;;  row             1   34[COMRAM] unsigned char 
  3749 ;;  col             1   35[COMRAM] unsigned char 
  3750 ;; Auto vars:     Size  Location     Type
  3751 ;;  ret             1   37[COMRAM] unsigned char 
  3752 ;; Return value:  Size  Location     Type
  3753 ;;                  1    wreg      unsigned char 
  3754 ;; Registers used:
  3755 ;;		wreg, fsr2l, fsr2h, status,2, status,0, tblptrl, tblptrh, tblptru, prodl, prodh, cstack
  3756 ;; Tracked objects:
  3757 ;;		On entry : 0/0
  3758 ;;		On exit  : 0/0
  3759 ;;		Unchanged: 0/0
  3760 ;; Data sizes:     COMRAM   BANK0   BANK1   BANK2   BANK3   BANK4   BANK5   BANK6   BANK7   BANK8   BANK9  BANK10  BANK1
      +1  BANK12  BANK13  BANK14  BANK15
  3761 ;;      Params:         6       0       0       0       0       0       0       0       0       0       0       0       
      +0       0       0       0       0
  3762 ;;      Locals:         1       0       0       0       0       0       0       0       0       0       0       0       
      +0       0       0       0       0
  3763 ;;      Temps:          1       0       0       0       0       0       0       0       0       0       0       0       
      +0       0       0       0       0
  3764 ;;      Totals:         8       0       0       0       0       0       0       0       0       0       0       0       
      +0       0       0       0       0
  3765 ;;Total ram usage:        8 bytes
  3766 ;; Hardware stack levels used: 1
  3767 ;; Hardware stack levels required when called: 4
  3768 ;; This function calls:
  3769 ;;		_gpio_pin_write_logic
  3770 ;;		_lcd_4bit_send_enable
  3771 ;;		_lcd_4bit_set_cursor
  3772 ;;		_lcd_send_4bits
  3773 ;; This function is called by:
  3774 ;;		_main
  3775 ;;		_open_the_safe_program
  3776 ;;		_set_password
  3777 ;;		_choose_program
  3778 ;;		_set_passowrd_frist_time
  3779 ;;		_try_again_after_5_sec
  3780 ;;		_enter_password_again
  3781 ;; This function uses a non-reentrant model
  3782 ;;
  3783                           
  3784                           	psect	text12
  3785   00ECD4                     __ptext12:
  3786                           	callstack 0
  3787   00ECD4                     _lcd_4bit_send_string_data_pos:
  3788                           	callstack 24
  3789   00ECD4                     
  3790                           ;ECU_Layer/ecu_lcd/ecu_lcd.c: 149:     if (((void*)0) == lcd )
  3791   00ECD4  501F               	movf	lcd_4bit_send_string_data_pos@lcd^0,w,c
  3792   00ECD6  1020               	iorwf	(lcd_4bit_send_string_data_pos@lcd+1)^0,w,c
  3793   00ECD8  A4D8               	btfss	status,2,c
  3794   00ECDA  EF71  F076         	goto	u1641
  3795   00ECDE  EF73  F076         	goto	u1640
  3796   00ECE2                     u1641:
  3797   00ECE2  EF77  F076         	goto	l3174
  3798   00ECE6                     u1640:
  3799   00ECE6                     
  3800                           ;ECU_Layer/ecu_lcd/ecu_lcd.c: 150:     {;ECU_Layer/ecu_lcd/ecu_lcd.c: 151:         ret =
      +                           (STD_ReturnType)0x00;
  3801   00ECE6  0E00               	movlw	0
  3802   00ECE8  6E26               	movwf	lcd_4bit_send_string_data_pos@ret^0,c
  3803                           
  3804                           ;ECU_Layer/ecu_lcd/ecu_lcd.c: 152:     }
  3805   00ECEA  EFCA  F076         	goto	l3190
  3806   00ECEE                     l3174:
  3807                           
  3808                           ;ECU_Layer/ecu_lcd/ecu_lcd.c: 154:     {;ECU_Layer/ecu_lcd/ecu_lcd.c: 155:         col--
      +                          ;
  3809   00ECEE  0624               	decf	lcd_4bit_send_string_data_pos@col^0,f,c
  3810   00ECF0  C01F  F018         	movff	lcd_4bit_send_string_data_pos@lcd,lcd_4bit_set_cursor@lcd
  3811   00ECF4  C020  F019         	movff	lcd_4bit_send_string_data_pos@lcd+1,lcd_4bit_set_cursor@lcd+1
  3812   00ECF8  C023  F01A         	movff	lcd_4bit_send_string_data_pos@row,lcd_4bit_set_cursor@row
  3813   00ECFC  C024  F01B         	movff	lcd_4bit_send_string_data_pos@col,lcd_4bit_set_cursor@col
  3814   00ED00  EC0E  F076         	call	_lcd_4bit_set_cursor	;wreg free
  3815   00ED04                     
  3816                           ;ECU_Layer/ecu_lcd/ecu_lcd.c: 157:         ret = gpio_pin_write_logic ( &(lcd->lcd_4bit_
      +                          rs) , GPIO_high);
  3817   00ED04  0E01               	movlw	1
  3818   00ED06  241F               	addwf	lcd_4bit_send_string_data_pos@lcd^0,w,c
  3819   00ED08  6E01               	movwf	gpio_pin_write_logic@Pin_config^0,c
  3820   00ED0A  0E00               	movlw	0
  3821   00ED0C  2020               	addwfc	(lcd_4bit_send_string_data_pos@lcd+1)^0,w,c
  3822   00ED0E  6E02               	movwf	(gpio_pin_write_logic@Pin_config+1)^0,c
  3823   00ED10  0E01               	movlw	1
  3824   00ED12  6E03               	movwf	gpio_pin_write_logic@logic^0,c
  3825   00ED14  EC38  F077         	call	_gpio_pin_write_logic	;wreg free
  3826   00ED18  6E26               	movwf	lcd_4bit_send_string_data_pos@ret^0,c
  3827                           
  3828                           ;ECU_Layer/ecu_lcd/ecu_lcd.c: 159:         while (*string!='\0')
  3829   00ED1A  EFBC  F076         	goto	l3188
  3830   00ED1E                     l3180:
  3831   00ED1E  C01F  F00B         	movff	lcd_4bit_send_string_data_pos@lcd,lcd_send_4bits@lcd
  3832   00ED22  C020  F00C         	movff	lcd_4bit_send_string_data_pos@lcd+1,lcd_send_4bits@lcd+1
  3833   00ED26  C021  FFF6         	movff	lcd_4bit_send_string_data_pos@string,tblptrl
  3834   00ED2A  C022  FFF7         	movff	lcd_4bit_send_string_data_pos@string+1,tblptrh
  3835   00ED2E                     	if	0	;tblptru may be non-zero
  3836   00ED2E                     	endif
  3837   00ED2E                     	if	0	;tblptru may be non-zero
  3838   00ED2E                     	endif
  3839   00ED2E  0008               	tblrd		*
  3840   00ED30  CFF5 F025          	movff	tablat,??_lcd_4bit_send_string_data_pos
  3841   00ED34  3825               	swapf	??_lcd_4bit_send_string_data_pos^0,w,c
  3842   00ED36  0B0F               	andlw	15
  3843   00ED38  6E0D               	movwf	lcd_send_4bits@value^0,c
  3844   00ED3A  ECA0  F072         	call	_lcd_send_4bits	;wreg free
  3845   00ED3E  C01F  F00B         	movff	lcd_4bit_send_string_data_pos@lcd,lcd_4bit_send_enable@lcd
  3846   00ED42  C020  F00C         	movff	lcd_4bit_send_string_data_pos@lcd+1,lcd_4bit_send_enable@lcd+1
  3847   00ED46  EC9C  F071         	call	_lcd_4bit_send_enable	;wreg free
  3848   00ED4A                     
  3849                           ;ECU_Layer/ecu_lcd/ecu_lcd.c: 165:             ret = lcd_send_4bits(lcd,*string);
  3850   00ED4A  C01F  F00B         	movff	lcd_4bit_send_string_data_pos@lcd,lcd_send_4bits@lcd
  3851   00ED4E  C020  F00C         	movff	lcd_4bit_send_string_data_pos@lcd+1,lcd_send_4bits@lcd+1
  3852   00ED52  C021  FFF6         	movff	lcd_4bit_send_string_data_pos@string,tblptrl
  3853   00ED56  C022  FFF7         	movff	lcd_4bit_send_string_data_pos@string+1,tblptrh
  3854   00ED5A                     	if	0	;tblptru may be non-zero
  3855   00ED5A                     	endif
  3856   00ED5A                     	if	0	;tblptru may be non-zero
  3857   00ED5A                     	endif
  3858   00ED5A  0008               	tblrd		*
  3859   00ED5C  CFF5 F00D          	movff	tablat,lcd_send_4bits@value
  3860   00ED60  ECA0  F072         	call	_lcd_send_4bits	;wreg free
  3861   00ED64  6E26               	movwf	lcd_4bit_send_string_data_pos@ret^0,c
  3862                           
  3863                           ;ECU_Layer/ecu_lcd/ecu_lcd.c: 166:             ret = lcd_4bit_send_enable ( lcd );
  3864   00ED66  C01F  F00B         	movff	lcd_4bit_send_string_data_pos@lcd,lcd_4bit_send_enable@lcd
  3865   00ED6A  C020  F00C         	movff	lcd_4bit_send_string_data_pos@lcd+1,lcd_4bit_send_enable@lcd+1
  3866   00ED6E  EC9C  F071         	call	_lcd_4bit_send_enable	;wreg free
  3867   00ED72  6E26               	movwf	lcd_4bit_send_string_data_pos@ret^0,c
  3868   00ED74                     
  3869                           ;ECU_Layer/ecu_lcd/ecu_lcd.c: 168:             string++;
  3870   00ED74  4A21               	infsnz	lcd_4bit_send_string_data_pos@string^0,f,c
  3871   00ED76  2A22               	incf	(lcd_4bit_send_string_data_pos@string+1)^0,f,c
  3872   00ED78                     l3188:
  3873                           
  3874                           ;ECU_Layer/ecu_lcd/ecu_lcd.c: 159:         while (*string!='\0')
  3875   00ED78  C021  FFF6         	movff	lcd_4bit_send_string_data_pos@string,tblptrl
  3876   00ED7C  C022  FFF7         	movff	lcd_4bit_send_string_data_pos@string+1,tblptrh
  3877   00ED80                     	if	0	;tblptru may be non-zero
  3878   00ED80                     	endif
  3879   00ED80                     	if	0	;tblptru may be non-zero
  3880   00ED80                     	endif
  3881   00ED80  0008               	tblrd		*
  3882   00ED82  50F5               	movf	tablat,w,c
  3883   00ED84  0900               	iorlw	0
  3884   00ED86  A4D8               	btfss	status,2,c
  3885   00ED88  EFC8  F076         	goto	u1651
  3886   00ED8C  EFCA  F076         	goto	u1650
  3887   00ED90                     u1651:
  3888   00ED90  EF8F  F076         	goto	l3180
  3889   00ED94                     u1650:
  3890   00ED94                     l3190:
  3891                           
  3892                           ;ECU_Layer/ecu_lcd/ecu_lcd.c: 171:     return ret;
  3893   00ED94  5026               	movf	lcd_4bit_send_string_data_pos@ret^0,w,c
  3894   00ED96  0012               	return		;funcret
  3895   00ED98                     __end_of_lcd_4bit_send_string_data_pos:
  3896                           	callstack 0
  3897                           
  3898 ;; *************** function _password_compare_with_eeprom *****************
  3899 ;; Defined at:
  3900 ;;		line 225 in file "App.c"
  3901 ;; Parameters:    Size  Location     Type
  3902 ;;  Password        2    4[COMRAM] PTR unsigned char 
  3903 ;;		 -> set_password@Temp_Password_1(10), Password(10), 
  3904 ;;  compare_stat    2    6[COMRAM] PTR unsigned char 
  3905 ;;		 -> set_password@compare_status(1), open_the_safe_program@compare_status(1), 
  3906 ;; Auto vars:     Size  Location     Type
  3907 ;;  temp_passwor    1   12[COMRAM] unsigned char 
  3908 ;;  eeprom_elemn    1   11[COMRAM] unsigned char 
  3909 ;;  wrong_passwo    1    9[COMRAM] unsigned char 
  3910 ;;  ret             1   10[COMRAM] unsigned char 
  3911 ;; Return value:  Size  Location     Type
  3912 ;;                  1    wreg      unsigned char 
  3913 ;; Registers used:
  3914 ;;		wreg, fsr2l, fsr2h, status,2, status,0, cstack
  3915 ;; Tracked objects:
  3916 ;;		On entry : 0/0
  3917 ;;		On exit  : 0/0
  3918 ;;		Unchanged: 0/0
  3919 ;; Data sizes:     COMRAM   BANK0   BANK1   BANK2   BANK3   BANK4   BANK5   BANK6   BANK7   BANK8   BANK9  BANK10  BANK1
      +1  BANK12  BANK13  BANK14  BANK15
  3920 ;;      Params:         4       0       0       0       0       0       0       0       0       0       0       0       
      +0       0       0       0       0
  3921 ;;      Locals:         4       0       0       0       0       0       0       0       0       0       0       0       
      +0       0       0       0       0
  3922 ;;      Temps:          1       0       0       0       0       0       0       0       0       0       0       0       
      +0       0       0       0       0
  3923 ;;      Totals:         9       0       0       0       0       0       0       0       0       0       0       0       
      +0       0       0       0       0
  3924 ;;Total ram usage:        9 bytes
  3925 ;; Hardware stack levels used: 1
  3926 ;; Hardware stack levels required when called: 1
  3927 ;; This function calls:
  3928 ;;		_EEPROM_READ_BYTE
  3929 ;; This function is called by:
  3930 ;;		_open_the_safe_program
  3931 ;;		_set_password
  3932 ;; This function uses a non-reentrant model
  3933 ;;
  3934                           
  3935                           	psect	text13
  3936   00EB66                     __ptext13:
  3937                           	callstack 0
  3938   00EB66                     _password_compare_with_eeprom:
  3939                           	callstack 28
  3940   00EB66                     
  3941                           ;App.c: 226:     STD_ReturnType ret = (STD_ReturnType)0x01;
  3942   00EB66  0E01               	movlw	1
  3943   00EB68  6E0B               	movwf	password_compare_with_eeprom@ret^0,c
  3944   00EB6A                     
  3945                           ;App.c: 227:     if ((((void*)0) == Password) ||( ((void*)0) == compare_status)){
  3946   00EB6A  5005               	movf	password_compare_with_eeprom@Password^0,w,c
  3947   00EB6C  1006               	iorwf	(password_compare_with_eeprom@Password+1)^0,w,c
  3948   00EB6E  B4D8               	btfsc	status,2,c
  3949   00EB70  EFBC  F075         	goto	u1921
  3950   00EB74  EFBE  F075         	goto	u1920
  3951   00EB78                     u1921:
  3952   00EB78  EFC7  F075         	goto	l3484
  3953   00EB7C                     u1920:
  3954   00EB7C  5007               	movf	password_compare_with_eeprom@compare_status^0,w,c
  3955   00EB7E  1008               	iorwf	(password_compare_with_eeprom@compare_status+1)^0,w,c
  3956   00EB80  A4D8               	btfss	status,2,c
  3957   00EB82  EFC5  F075         	goto	u1931
  3958   00EB86  EFC7  F075         	goto	u1930
  3959   00EB8A                     u1931:
  3960   00EB8A  EFCB  F075         	goto	l3486
  3961   00EB8E                     u1930:
  3962   00EB8E                     l3484:
  3963                           
  3964                           ;App.c: 228:         ret = (STD_ReturnType)0x00;
  3965   00EB8E  0E00               	movlw	0
  3966   00EB90  6E0B               	movwf	password_compare_with_eeprom@ret^0,c
  3967                           
  3968                           ;App.c: 229:     }
  3969   00EB92  EF0C  F076         	goto	l3504
  3970   00EB96                     l3486:
  3971                           
  3972                           ;App.c: 231:         uint8 temp_password_digits_counter = 0;
  3973   00EB96  0E00               	movlw	0
  3974   00EB98  6E0D               	movwf	password_compare_with_eeprom@temp_password_digits_counter^0,c
  3975                           
  3976                           ;App.c: 232:         uint8 eeprom_elemnt=0;
  3977   00EB9A  0E00               	movlw	0
  3978   00EB9C  6E0C               	movwf	password_compare_with_eeprom@eeprom_elemnt^0,c
  3979                           
  3980                           ;App.c: 233:         uint8 wrong_password_flag=0;
  3981   00EB9E  0E00               	movlw	0
  3982   00EBA0  6E0A               	movwf	password_compare_with_eeprom@wrong_password_flag^0,c
  3983                           
  3984                           ;App.c: 234:         while(temp_password_digits_counter < 10){
  3985   00EBA2  EFEF  F075         	goto	l3496
  3986   00EBA6                     l3488:
  3987                           
  3988                           ;App.c: 235:             ret = EEPROM_READ_BYTE(0x00+temp_password_digits_counter,&eepro
      +                          m_elemnt);
  3989   00EBA6  C00D  F001         	movff	password_compare_with_eeprom@temp_password_digits_counter,EEPROM_READ_BYTE@bAdd
  3990   00EBAA  6A02               	clrf	(EEPROM_READ_BYTE@bAdd+1)^0,c
  3991   00EBAC  0E0C               	movlw	low password_compare_with_eeprom@eeprom_elemnt
  3992   00EBAE  6E03               	movwf	EEPROM_READ_BYTE@data^0,c
  3993   00EBB0  0E00               	movlw	high password_compare_with_eeprom@eeprom_elemnt
  3994   00EBB2  6E04               	movwf	(EEPROM_READ_BYTE@data+1)^0,c
  3995   00EBB4  ECD6  F070         	call	_EEPROM_READ_BYTE	;wreg free
  3996   00EBB8  6E0B               	movwf	password_compare_with_eeprom@ret^0,c
  3997   00EBBA                     
  3998                           ;App.c: 236:             if (Password[temp_password_digits_counter]!= eeprom_elemnt){
  3999   00EBBA  500D               	movf	password_compare_with_eeprom@temp_password_digits_counter^0,w,c
  4000   00EBBC  2405               	addwf	password_compare_with_eeprom@Password^0,w,c
  4001   00EBBE  6ED9               	movwf	fsr2l,c
  4002   00EBC0  0E00               	movlw	0
  4003   00EBC2  2006               	addwfc	(password_compare_with_eeprom@Password+1)^0,w,c
  4004   00EBC4  6EDA               	movwf	fsr2h,c
  4005   00EBC6  500C               	movf	password_compare_with_eeprom@eeprom_elemnt^0,w,c
  4006   00EBC8  18DE               	xorwf	postinc2,w,c
  4007   00EBCA  B4D8               	btfsc	status,2,c
  4008   00EBCC  EFEA  F075         	goto	u1941
  4009   00EBD0  EFEC  F075         	goto	u1940
  4010   00EBD4                     u1941:
  4011   00EBD4  EFEE  F075         	goto	l3494
  4012   00EBD8                     u1940:
  4013   00EBD8                     
  4014                           ;App.c: 237:                 wrong_password_flag=1;
  4015   00EBD8  0E01               	movlw	1
  4016   00EBDA  6E0A               	movwf	password_compare_with_eeprom@wrong_password_flag^0,c
  4017   00EBDC                     l3494:
  4018                           
  4019                           ;App.c: 239:             temp_password_digits_counter++;
  4020   00EBDC  2A0D               	incf	password_compare_with_eeprom@temp_password_digits_counter^0,f,c
  4021   00EBDE                     l3496:
  4022                           
  4023                           ;App.c: 234:         while(temp_password_digits_counter < 10){
  4024   00EBDE  0E09               	movlw	9
  4025   00EBE0  640D               	cpfsgt	password_compare_with_eeprom@temp_password_digits_counter^0,c
  4026   00EBE2  EFF5  F075         	goto	u1951
  4027   00EBE6  EFF7  F075         	goto	u1950
  4028   00EBEA                     u1951:
  4029   00EBEA  EFD3  F075         	goto	l3488
  4030   00EBEE                     u1950:
  4031   00EBEE                     
  4032                           ;App.c: 241:         if(wrong_password_flag){
  4033   00EBEE  500A               	movf	password_compare_with_eeprom@wrong_password_flag^0,w,c
  4034   00EBF0  B4D8               	btfsc	status,2,c
  4035   00EBF2  EFFD  F075         	goto	u1961
  4036   00EBF6  EFFF  F075         	goto	u1960
  4037   00EBFA                     u1961:
  4038   00EBFA  EF06  F076         	goto	l3502
  4039   00EBFE                     u1960:
  4040   00EBFE                     
  4041                           ;App.c: 242:             *compare_status=0;
  4042   00EBFE  C007  FFD9         	movff	password_compare_with_eeprom@compare_status,fsr2l
  4043   00EC02  C008  FFDA         	movff	password_compare_with_eeprom@compare_status+1,fsr2h
  4044   00EC06  6ADF               	clrf	indf2,c
  4045                           
  4046                           ;App.c: 243:         }
  4047   00EC08  EF0C  F076         	goto	l3504
  4048   00EC0C                     l3502:
  4049                           
  4050                           ;App.c: 245:             *compare_status=1;
  4051   00EC0C  C007  FFD9         	movff	password_compare_with_eeprom@compare_status,fsr2l
  4052   00EC10  C008  FFDA         	movff	password_compare_with_eeprom@compare_status+1,fsr2h
  4053   00EC14  0E01               	movlw	1
  4054   00EC16  6EDF               	movwf	indf2,c
  4055   00EC18                     l3504:
  4056                           
  4057                           ;App.c: 249:     return ret;
  4058   00EC18  500B               	movf	password_compare_with_eeprom@ret^0,w,c
  4059   00EC1A  0012               	return		;funcret
  4060   00EC1C                     __end_of_password_compare_with_eeprom:
  4061                           	callstack 0
  4062                           
  4063 ;; *************** function _EEPROM_READ_BYTE *****************
  4064 ;; Defined at:
  4065 ;;		line 35 in file "MCAL_Layer/EEPROM/mcal_eeprom.c"
  4066 ;; Parameters:    Size  Location     Type
  4067 ;;  bAdd            2    0[COMRAM] unsigned int 
  4068 ;;  data            2    2[COMRAM] PTR unsigned char 
  4069 ;;		 -> password_compare_with_eeprom@eeprom_elemnt(1), main@frist_time_to_use_the_safe(1), 
  4070 ;; Auto vars:     Size  Location     Type
  4071 ;;  ret             1    0        unsigned char 
  4072 ;; Return value:  Size  Location     Type
  4073 ;;                  1    wreg      unsigned char 
  4074 ;; Registers used:
  4075 ;;		wreg, fsr2l, fsr2h, status,2, status,0
  4076 ;; Tracked objects:
  4077 ;;		On entry : 0/0
  4078 ;;		On exit  : 0/0
  4079 ;;		Unchanged: 0/0
  4080 ;; Data sizes:     COMRAM   BANK0   BANK1   BANK2   BANK3   BANK4   BANK5   BANK6   BANK7   BANK8   BANK9  BANK10  BANK1
      +1  BANK12  BANK13  BANK14  BANK15
  4081 ;;      Params:         4       0       0       0       0       0       0       0       0       0       0       0       
      +0       0       0       0       0
  4082 ;;      Locals:         0       0       0       0       0       0       0       0       0       0       0       0       
      +0       0       0       0       0
  4083 ;;      Temps:          0       0       0       0       0       0       0       0       0       0       0       0       
      +0       0       0       0       0
  4084 ;;      Totals:         4       0       0       0       0       0       0       0       0       0       0       0       
      +0       0       0       0       0
  4085 ;;Total ram usage:        4 bytes
  4086 ;; Hardware stack levels used: 1
  4087 ;; This function calls:
  4088 ;;		Nothing
  4089 ;; This function is called by:
  4090 ;;		_main
  4091 ;;		_password_compare_with_eeprom
  4092 ;; This function uses a non-reentrant model
  4093 ;;
  4094                           
  4095                           	psect	text14
  4096   00E1AC                     __ptext14:
  4097                           	callstack 0
  4098   00E1AC                     _EEPROM_READ_BYTE:
  4099                           	callstack 28
  4100   00E1AC                     
  4101                           ;MCAL_Layer/EEPROM/mcal_eeprom.c: 38:     if( (((void*)0) == data) ){
  4102   00E1AC  5003               	movf	EEPROM_READ_BYTE@data^0,w,c
  4103   00E1AE  1004               	iorwf	(EEPROM_READ_BYTE@data+1)^0,w,c
  4104   00E1B0  A4D8               	btfss	status,2,c
  4105   00E1B2  EFDD  F070         	goto	u1681
  4106   00E1B6  EFDF  F070         	goto	u1680
  4107   00E1BA                     u1681:
  4108   00E1BA  EFE1  F070         	goto	l3224
  4109   00E1BE                     u1680:
  4110   00E1BE                     
  4111                           ;MCAL_Layer/EEPROM/mcal_eeprom.c: 40:     }
  4112   00E1BE  EFF1  F070         	goto	l3240
  4113   00E1C2                     l3224:
  4114                           
  4115                           ;MCAL_Layer/EEPROM/mcal_eeprom.c: 43:         EEADRH = (uint8)((bAdd>>8)&(0x03));
  4116   00E1C2  5002               	movf	(EEPROM_READ_BYTE@bAdd+1)^0,w,c
  4117   00E1C4  0B03               	andlw	3
  4118   00E1C6  6EAA               	movwf	170,c	;volatile
  4119   00E1C8                     
  4120                           ;MCAL_Layer/EEPROM/mcal_eeprom.c: 44:         EEADR =(uint8)((bAdd)&(0xff));
  4121   00E1C8  C001  FFA9         	movff	EEPROM_READ_BYTE@bAdd,4009	;volatile
  4122   00E1CC                     
  4123                           ;MCAL_Layer/EEPROM/mcal_eeprom.c: 46:         (EECON1bits.EEPGD = 0);
  4124   00E1CC  9EA6               	bcf	166,7,c	;volsfr
  4125   00E1CE                     
  4126                           ;MCAL_Layer/EEPROM/mcal_eeprom.c: 48:         (EECON1bits.CFGS = 0);
  4127   00E1CE  9CA6               	bcf	166,6,c	;volsfr
  4128   00E1D0                     
  4129                           ;MCAL_Layer/EEPROM/mcal_eeprom.c: 50:         (EECON1bits.RD = 1);
  4130   00E1D0  80A6               	bsf	166,0,c	;volsfr
  4131   00E1D2                     
  4132                           ;MCAL_Layer/EEPROM/mcal_eeprom.c: 51:         __nop();
  4133   00E1D2  F000               	nop	
  4134   00E1D4                     
  4135                           ;MCAL_Layer/EEPROM/mcal_eeprom.c: 52:         __nop();
  4136   00E1D4  F000               	nop	
  4137   00E1D6                     
  4138                           ;MCAL_Layer/EEPROM/mcal_eeprom.c: 54:         *data = EEDATA;
  4139   00E1D6  C003  FFD9         	movff	EEPROM_READ_BYTE@data,fsr2l
  4140   00E1DA  C004  FFDA         	movff	EEPROM_READ_BYTE@data+1,fsr2h
  4141   00E1DE  CFA8 FFDF          	movff	4008,indf2	;volatile
  4142   00E1E2                     l3240:
  4143                           
  4144                           ;MCAL_Layer/EEPROM/mcal_eeprom.c: 56:     return ret;
  4145   00E1E2  0E00               	movlw	0
  4146   00E1E4  0012               	return		;funcret
  4147   00E1E6                     __end_of_EEPROM_READ_BYTE:
  4148                           	callstack 0
  4149                           
  4150 ;; *************** function _enter_your_password *****************
  4151 ;; Defined at:
  4152 ;;		line 260 in file "App.c"
  4153 ;; Parameters:    Size  Location     Type
  4154 ;;  _password       2   36[COMRAM] PTR unsigned char 
  4155 ;;		 -> set_passowrd_frist_time@Temp_Password_2(10), set_password@Temp_Password_2(10), set_password@Temp_Password_1(10),
      + Password(10), 
  4156 ;; Auto vars:     Size  Location     Type
  4157 ;;  pressed_key     1   42[COMRAM] unsigned char 
  4158 ;;  temp_passwor    1   41[COMRAM] unsigned char 
  4159 ;;  ret             1   40[COMRAM] unsigned char 
  4160 ;; Return value:  Size  Location     Type
  4161 ;;                  1    wreg      unsigned char 
  4162 ;; Registers used:
  4163 ;;		wreg, fsr2l, fsr2h, status,2, status,0, tblptrl, tblptrh, tblptru, prodl, prodh, cstack
  4164 ;; Tracked objects:
  4165 ;;		On entry : 0/0
  4166 ;;		On exit  : 0/0
  4167 ;;		Unchanged: 0/0
  4168 ;; Data sizes:     COMRAM   BANK0   BANK1   BANK2   BANK3   BANK4   BANK5   BANK6   BANK7   BANK8   BANK9  BANK10  BANK1
      +1  BANK12  BANK13  BANK14  BANK15
  4169 ;;      Params:         2       0       0       0       0       0       0       0       0       0       0       0       
      +0       0       0       0       0
  4170 ;;      Locals:         3       0       0       0       0       0       0       0       0       0       0       0       
      +0       0       0       0       0
  4171 ;;      Temps:          2       0       0       0       0       0       0       0       0       0       0       0       
      +0       0       0       0       0
  4172 ;;      Totals:         7       0       0       0       0       0       0       0       0       0       0       0       
      +0       0       0       0       0
  4173 ;;Total ram usage:        7 bytes
  4174 ;; Hardware stack levels used: 1
  4175 ;; Hardware stack levels required when called: 5
  4176 ;; This function calls:
  4177 ;;		_lcd_4bit_send_char_data_pos
  4178 ;;		_read_keypad
  4179 ;; This function is called by:
  4180 ;;		_open_the_safe_program
  4181 ;;		_set_password
  4182 ;;		_set_passowrd_frist_time
  4183 ;; This function uses a non-reentrant model
  4184 ;;
  4185                           
  4186                           	psect	text15
  4187   00ED98                     __ptext15:
  4188                           	callstack 0
  4189   00ED98                     _enter_your_password:
  4190                           	callstack 24
  4191   00ED98                     
  4192                           ;App.c: 261:     STD_ReturnType ret = (STD_ReturnType)0x01;
  4193   00ED98  0E01               	movlw	1
  4194   00ED9A  6E29               	movwf	enter_your_password@ret^0,c
  4195   00ED9C                     
  4196                           ;App.c: 262:     if (((void*)0) == _password){
  4197   00ED9C  5025               	movf	enter_your_password@_password^0,w,c
  4198   00ED9E  1026               	iorwf	(enter_your_password@_password+1)^0,w,c
  4199   00EDA0  A4D8               	btfss	status,2,c
  4200   00EDA2  EFD5  F076         	goto	u1871
  4201   00EDA6  EFD7  F076         	goto	u1870
  4202   00EDAA                     u1871:
  4203   00EDAA  EFDB  F076         	goto	l3450
  4204   00EDAE                     u1870:
  4205   00EDAE                     
  4206                           ;App.c: 263:         ret = (STD_ReturnType)0x00;
  4207   00EDAE  0E00               	movlw	0
  4208   00EDB0  6E29               	movwf	enter_your_password@ret^0,c
  4209                           
  4210                           ;App.c: 264:     }
  4211   00EDB2  EF36  F077         	goto	l3474
  4212   00EDB6                     l3450:
  4213                           
  4214                           ;App.c: 267:         uint8 temp_password_digits_counter = 0;
  4215   00EDB6  0E00               	movlw	0
  4216   00EDB8  6E2A               	movwf	enter_your_password@temp_password_digits_counter^0,c
  4217                           
  4218                           ;App.c: 269:         while(temp_password_digits_counter < 10){
  4219   00EDBA  EF2E  F077         	goto	l3472
  4220   00EDBE                     l3452:
  4221                           
  4222                           ;App.c: 270:             pressed_key = '\0';
  4223   00EDBE  0E00               	movlw	0
  4224   00EDC0  6E2B               	movwf	enter_your_password@pressed_key^0,c
  4225                           
  4226                           ;App.c: 271:             while('\0'==pressed_key){
  4227   00EDC2  EFEE  F076         	goto	l3456
  4228   00EDC6                     l3454:
  4229                           
  4230                           ;App.c: 272:                 ret = read_keypad(&keypad,&pressed_key);
  4231   00EDC6  0E9C               	movlw	low _keypad
  4232   00EDC8  6E0B               	movwf	read_keypad@keypad^0,c
  4233   00EDCA  0E00               	movlw	high _keypad
  4234   00EDCC  6E0C               	movwf	(read_keypad@keypad+1)^0,c
  4235   00EDCE  0E2B               	movlw	low enter_your_password@pressed_key
  4236   00EDD0  6E0D               	movwf	read_keypad@value^0,c
  4237   00EDD2  0E00               	movlw	high enter_your_password@pressed_key
  4238   00EDD4  6E0E               	movwf	(read_keypad@value+1)^0,c
  4239   00EDD6  ECCF  F078         	call	_read_keypad	;wreg free
  4240   00EDDA  6E29               	movwf	enter_your_password@ret^0,c
  4241   00EDDC                     l3456:
  4242                           
  4243                           ;App.c: 271:             while('\0'==pressed_key){
  4244   00EDDC  502B               	movf	enter_your_password@pressed_key^0,w,c
  4245   00EDDE  B4D8               	btfsc	status,2,c
  4246   00EDE0  EFF4  F076         	goto	u1881
  4247   00EDE4  EFF6  F076         	goto	u1880
  4248   00EDE8                     u1881:
  4249   00EDE8  EFE3  F076         	goto	l3454
  4250   00EDEC                     u1880:
  4251   00EDEC                     
  4252                           ;App.c: 274:             if ('#'!=pressed_key){
  4253   00EDEC  0E23               	movlw	35
  4254   00EDEE  182B               	xorwf	enter_your_password@pressed_key^0,w,c
  4255   00EDF0  B4D8               	btfsc	status,2,c
  4256   00EDF2  EFFD  F076         	goto	u1891
  4257   00EDF6  EFFF  F076         	goto	u1890
  4258   00EDFA                     u1891:
  4259   00EDFA  EF23  F077         	goto	l3468
  4260   00EDFE                     u1890:
  4261   00EDFE                     
  4262                           ;App.c: 275:                 _password[temp_password_digits_counter]=pressed_key;
  4263   00EDFE  502A               	movf	enter_your_password@temp_password_digits_counter^0,w,c
  4264   00EE00  2425               	addwf	enter_your_password@_password^0,w,c
  4265   00EE02  6ED9               	movwf	fsr2l,c
  4266   00EE04  0E00               	movlw	0
  4267   00EE06  2026               	addwfc	(enter_your_password@_password+1)^0,w,c
  4268   00EE08  6EDA               	movwf	fsr2h,c
  4269   00EE0A  C02B  FFDF         	movff	enter_your_password@pressed_key,indf2
  4270   00EE0E                     
  4271                           ;App.c: 276:                 ret = lcd_4bit_send_char_data_pos(&lcd,'*',2,1+temp_passwor
      +                          d_digits_counter);
  4272   00EE0E  0E4B               	movlw	low _lcd
  4273   00EE10  6E1F               	movwf	lcd_4bit_send_char_data_pos@lcd^0,c
  4274   00EE12  0E00               	movlw	high _lcd
  4275   00EE14  6E20               	movwf	(lcd_4bit_send_char_data_pos@lcd+1)^0,c
  4276   00EE16  0E2A               	movlw	42
  4277   00EE18  6E21               	movwf	lcd_4bit_send_char_data_pos@data^0,c
  4278   00EE1A  0E02               	movlw	2
  4279   00EE1C  6E22               	movwf	lcd_4bit_send_char_data_pos@row^0,c
  4280   00EE1E  282A               	incf	enter_your_password@temp_password_digits_counter^0,w,c
  4281   00EE20  6E23               	movwf	lcd_4bit_send_char_data_pos@col^0,c
  4282   00EE22  ECD3  F074         	call	_lcd_4bit_send_char_data_pos	;wreg free
  4283   00EE26  6E29               	movwf	enter_your_password@ret^0,c
  4284   00EE28                     
  4285                           ;App.c: 277:                 temp_password_digits_counter++;
  4286   00EE28  2A2A               	incf	enter_your_password@temp_password_digits_counter^0,f,c
  4287   00EE2A                     
  4288                           ;App.c: 278:                 _delay((unsigned long)((200)*(8000000/4000.0)));
  4289   00EE2A  0E03               	movlw	3
  4290   00EE2C  6E28               	movwf	(??_enter_your_password+1)^0,c
  4291   00EE2E  0E08               	movlw	8
  4292   00EE30  6E27               	movwf	??_enter_your_password^0,c
  4293   00EE32  0E77               	movlw	119
  4294   00EE34                     u2917:
  4295   00EE34  2EE8               	decfsz	wreg,f,c
  4296   00EE36  D7FE               	bra	u2917
  4297   00EE38  2E27               	decfsz	??_enter_your_password^0,f,c
  4298   00EE3A  D7FC               	bra	u2917
  4299   00EE3C  2E28               	decfsz	(??_enter_your_password+1)^0,f,c
  4300   00EE3E  D7FA               	bra	u2917
  4301   00EE40  F000               	nop	
  4302                           
  4303                           ;App.c: 279:             }
  4304   00EE42  EF2E  F077         	goto	l3472
  4305   00EE46                     l3468:
  4306   00EE46  0E23               	movlw	35
  4307   00EE48  182B               	xorwf	enter_your_password@pressed_key^0,w,c
  4308   00EE4A  A4D8               	btfss	status,2,c
  4309   00EE4C  EF2A  F077         	goto	u1901
  4310   00EE50  EF2C  F077         	goto	u1900
  4311   00EE54                     u1901:
  4312   00EE54  EF2E  F077         	goto	l3472
  4313   00EE58                     u1900:
  4314   00EE58  EF36  F077         	goto	l3474
  4315   00EE5C                     l3472:
  4316                           
  4317                           ;App.c: 269:         while(temp_password_digits_counter < 10){
  4318   00EE5C  0E09               	movlw	9
  4319   00EE5E  642A               	cpfsgt	enter_your_password@temp_password_digits_counter^0,c
  4320   00EE60  EF34  F077         	goto	u1911
  4321   00EE64  EF36  F077         	goto	u1910
  4322   00EE68                     u1911:
  4323   00EE68  EFDF  F076         	goto	l3452
  4324   00EE6C                     u1910:
  4325   00EE6C                     l3474:
  4326                           
  4327                           ;App.c: 285:     return ret;
  4328   00EE6C  5029               	movf	enter_your_password@ret^0,w,c
  4329   00EE6E  0012               	return		;funcret
  4330   00EE70                     __end_of_enter_your_password:
  4331                           	callstack 0
  4332                           
  4333 ;; *************** function _read_keypad *****************
  4334 ;; Defined at:
  4335 ;;		line 35 in file "ECU_Layer/ecu_keypad/ecu_keypad.c"
  4336 ;; Parameters:    Size  Location     Type
  4337 ;;  keypad          2   10[COMRAM] PTR const struct .
  4338 ;;		 -> keypad(8), 
  4339 ;;  value           2   12[COMRAM] PTR unsigned char 
  4340 ;;		 -> enter_password_again@pressed_key_again(1), set_passowrd_frist_time@pressed_key(1), choose_program@pressed_button
      +(1), enter_your_password@pressed_key(1), 
  4341 ;; Auto vars:     Size  Location     Type
  4342 ;;  l_cols_count    1   20[COMRAM] unsigned char 
  4343 ;;  l_rows_count    1   18[COMRAM] unsigned char 
  4344 ;;  pressed_but     1   17[COMRAM] unsigned char 
  4345 ;;  rows_counter    1   19[COMRAM] unsigned char 
  4346 ;;  ret             1   16[COMRAM] unsigned char 
  4347 ;; Return value:  Size  Location     Type
  4348 ;;                  1    wreg      unsigned char 
  4349 ;; Registers used:
  4350 ;;		wreg, fsr2l, fsr2h, status,2, status,0, tblptrl, tblptrh, tblptru, prodl, prodh, cstack
  4351 ;; Tracked objects:
  4352 ;;		On entry : 0/0
  4353 ;;		On exit  : 0/0
  4354 ;;		Unchanged: 0/0
  4355 ;; Data sizes:     COMRAM   BANK0   BANK1   BANK2   BANK3   BANK4   BANK5   BANK6   BANK7   BANK8   BANK9  BANK10  BANK1
      +1  BANK12  BANK13  BANK14  BANK15
  4356 ;;      Params:         4       0       0       0       0       0       0       0       0       0       0       0       
      +0       0       0       0       0
  4357 ;;      Locals:         5       0       0       0       0       0       0       0       0       0       0       0       
      +0       0       0       0       0
  4358 ;;      Temps:          2       0       0       0       0       0       0       0       0       0       0       0       
      +0       0       0       0       0
  4359 ;;      Totals:        11       0       0       0       0       0       0       0       0       0       0       0       
      +0       0       0       0       0
  4360 ;;Total ram usage:       11 bytes
  4361 ;; Hardware stack levels used: 1
  4362 ;; Hardware stack levels required when called: 1
  4363 ;; This function calls:
  4364 ;;		_gpio_pin_read_logic
  4365 ;;		_gpio_pin_write_logic
  4366 ;; This function is called by:
  4367 ;;		_enter_your_password
  4368 ;;		_choose_program
  4369 ;;		_set_passowrd_frist_time
  4370 ;;		_enter_password_again
  4371 ;; This function uses a non-reentrant model
  4372 ;;
  4373                           
  4374                           	psect	text16
  4375   00F19E                     __ptext16:
  4376                           	callstack 0
  4377   00F19E                     _read_keypad:
  4378                           	callstack 28
  4379   00F19E                     
  4380                           ;ECU_Layer/ecu_keypad/ecu_keypad.c: 39:     if ( (((void*)0) == keypad)||(((void*)0) == 
      +                          value) )
  4381   00F19E  500B               	movf	read_keypad@keypad^0,w,c
  4382   00F1A0  100C               	iorwf	(read_keypad@keypad+1)^0,w,c
  4383   00F1A2  B4D8               	btfsc	status,2,c
  4384   00F1A4  EFD6  F078         	goto	u1571
  4385   00F1A8  EFD8  F078         	goto	u1570
  4386   00F1AC                     u1571:
  4387   00F1AC  EFE1  F078         	goto	l3096
  4388   00F1B0                     u1570:
  4389   00F1B0  500D               	movf	read_keypad@value^0,w,c
  4390   00F1B2  100E               	iorwf	(read_keypad@value+1)^0,w,c
  4391   00F1B4  A4D8               	btfss	status,2,c
  4392   00F1B6  EFDF  F078         	goto	u1581
  4393   00F1BA  EFE1  F078         	goto	u1580
  4394   00F1BE                     u1581:
  4395   00F1BE  EFE5  F078         	goto	l3098
  4396   00F1C2                     u1580:
  4397   00F1C2                     l3096:
  4398                           
  4399                           ;ECU_Layer/ecu_keypad/ecu_keypad.c: 40:     {;ECU_Layer/ecu_keypad/ecu_keypad.c: 41:    
      +                               ret = (STD_ReturnType)0x00;
  4400   00F1C2  0E00               	movlw	0
  4401   00F1C4  6E11               	movwf	read_keypad@ret^0,c
  4402                           
  4403                           ;ECU_Layer/ecu_keypad/ecu_keypad.c: 42:     }
  4404   00F1C6  EF57  F079         	goto	l3140
  4405   00F1CA                     l3098:
  4406                           
  4407                           ;ECU_Layer/ecu_keypad/ecu_keypad.c: 44:     {;ECU_Layer/ecu_keypad/ecu_keypad.c: 45:    
      +                               for (uint8 rows_counter = 0 ; rows_counter<4 ; rows_counter++ )
  4408   00F1CA  0E00               	movlw	0
  4409   00F1CC  6E14               	movwf	read_keypad@rows_counter^0,c
  4410   00F1CE                     l3104:
  4411                           
  4412                           ;ECU_Layer/ecu_keypad/ecu_keypad.c: 46:         {;ECU_Layer/ecu_keypad/ecu_keypad.c: 47:
      +                                       uint8 pressed_but =0;
  4413   00F1CE  0E00               	movlw	0
  4414   00F1D0  6E12               	movwf	read_keypad@pressed_but^0,c
  4415                           
  4416                           ;ECU_Layer/ecu_keypad/ecu_keypad.c: 48:             for (uint8 l_rows_counter = 0 ; l_ro
      +                          ws_counter<4 ; l_rows_counter++ )
  4417   00F1D2  0E00               	movlw	0
  4418   00F1D4  6E13               	movwf	read_keypad@l_rows_counter^0,c
  4419   00F1D6                     l3110:
  4420   00F1D6  5013               	movf	read_keypad@l_rows_counter^0,w,c
  4421   00F1D8  240B               	addwf	read_keypad@keypad^0,w,c
  4422   00F1DA  6E01               	movwf	gpio_pin_write_logic@Pin_config^0,c
  4423   00F1DC  0E00               	movlw	0
  4424   00F1DE  200C               	addwfc	(read_keypad@keypad+1)^0,w,c
  4425   00F1E0  6E02               	movwf	(gpio_pin_write_logic@Pin_config+1)^0,c
  4426   00F1E2  0E00               	movlw	0
  4427   00F1E4  6E03               	movwf	gpio_pin_write_logic@logic^0,c
  4428   00F1E6  EC38  F077         	call	_gpio_pin_write_logic	;wreg free
  4429   00F1EA                     
  4430                           ;ECU_Layer/ecu_keypad/ecu_keypad.c: 51:             }
  4431   00F1EA  2A13               	incf	read_keypad@l_rows_counter^0,f,c
  4432   00F1EC  0E03               	movlw	3
  4433   00F1EE  6413               	cpfsgt	read_keypad@l_rows_counter^0,c
  4434   00F1F0  EFFC  F078         	goto	u1591
  4435   00F1F4  EFFE  F078         	goto	u1590
  4436   00F1F8                     u1591:
  4437   00F1F8  EFEB  F078         	goto	l3110
  4438   00F1FC                     u1590:
  4439   00F1FC  5014               	movf	read_keypad@rows_counter^0,w,c
  4440   00F1FE  240B               	addwf	read_keypad@keypad^0,w,c
  4441   00F200  6E01               	movwf	gpio_pin_write_logic@Pin_config^0,c
  4442   00F202  0E00               	movlw	0
  4443   00F204  200C               	addwfc	(read_keypad@keypad+1)^0,w,c
  4444   00F206  6E02               	movwf	(gpio_pin_write_logic@Pin_config+1)^0,c
  4445   00F208  0E01               	movlw	1
  4446   00F20A  6E03               	movwf	gpio_pin_write_logic@logic^0,c
  4447   00F20C  EC38  F077         	call	_gpio_pin_write_logic	;wreg free
  4448   00F210                     
  4449                           ;ECU_Layer/ecu_keypad/ecu_keypad.c: 53:             _delay((unsigned long)((10)*(8000000
      +                          /4000.0)));
  4450   00F210  0E1A               	movlw	26
  4451   00F212  6E0F               	movwf	??_read_keypad^0,c
  4452   00F214  0EF8               	movlw	248
  4453   00F216                     u2927:
  4454   00F216  2EE8               	decfsz	wreg,f,c
  4455   00F218  D7FE               	bra	u2927
  4456   00F21A  2E0F               	decfsz	??_read_keypad^0,f,c
  4457   00F21C  D7FC               	bra	u2927
  4458   00F21E  F000 F000          	nop2	
  4459   00F222                     
  4460                           ;ECU_Layer/ecu_keypad/ecu_keypad.c: 54:             for (uint8 l_cols_counter = 0 ; l_co
      +                          ls_counter<4 ; l_cols_counter++ )
  4461   00F222  0E00               	movlw	0
  4462   00F224  6E15               	movwf	read_keypad@l_cols_counter^0,c
  4463   00F226                     l3126:
  4464                           
  4465                           ;ECU_Layer/ecu_keypad/ecu_keypad.c: 55:             {;ECU_Layer/ecu_keypad/ecu_keypad.c:
      +                           56:                 ret = gpio_pin_read_logic( &(keypad->keypad_cols_pins[l_cols_counte
      +                          r]),&pressed_but );
  4466   00F226  5015               	movf	read_keypad@l_cols_counter^0,w,c
  4467   00F228  240B               	addwf	read_keypad@keypad^0,w,c
  4468   00F22A  6E0F               	movwf	??_read_keypad^0,c
  4469   00F22C  0E00               	movlw	0
  4470   00F22E  200C               	addwfc	(read_keypad@keypad+1)^0,w,c
  4471   00F230  6E10               	movwf	(??_read_keypad+1)^0,c
  4472   00F232  0E04               	movlw	4
  4473   00F234  240F               	addwf	??_read_keypad^0,w,c
  4474   00F236  6E01               	movwf	gpio_pin_read_logic@Pin_config^0,c
  4475   00F238  0E00               	movlw	0
  4476   00F23A  2010               	addwfc	(??_read_keypad+1)^0,w,c
  4477   00F23C  6E02               	movwf	(gpio_pin_read_logic@Pin_config+1)^0,c
  4478   00F23E  0E12               	movlw	low read_keypad@pressed_but
  4479   00F240  6E03               	movwf	gpio_pin_read_logic@logic^0,c
  4480   00F242  0E00               	movlw	high read_keypad@pressed_but
  4481   00F244  6E04               	movwf	(gpio_pin_read_logic@logic+1)^0,c
  4482   00F246  EC15  F075         	call	_gpio_pin_read_logic	;wreg free
  4483   00F24A  6E11               	movwf	read_keypad@ret^0,c
  4484   00F24C                     
  4485                           ;ECU_Layer/ecu_keypad/ecu_keypad.c: 57:                 if (pressed_but)
  4486   00F24C  5012               	movf	read_keypad@pressed_but^0,w,c
  4487   00F24E  B4D8               	btfsc	status,2,c
  4488   00F250  EF2C  F079         	goto	u1601
  4489   00F254  EF2E  F079         	goto	u1600
  4490   00F258                     u1601:
  4491   00F258  EF45  F079         	goto	l3132
  4492   00F25C                     u1600:
  4493   00F25C                     
  4494                           ;ECU_Layer/ecu_keypad/ecu_keypad.c: 58:                 {;ECU_Layer/ecu_keypad/ecu_keypa
      +                          d.c: 59:                    *value = keypad_buttons[rows_counter][l_cols_counter];
  4495   00F25C  5014               	movf	read_keypad@rows_counter^0,w,c
  4496   00F25E  0D04               	mullw	4
  4497   00F260  0E17               	movlw	low _keypad_buttons
  4498   00F262  24F3               	addwf	243,w,c
  4499   00F264  6E0F               	movwf	??_read_keypad^0,c
  4500   00F266  0EFE               	movlw	high _keypad_buttons
  4501   00F268  20F4               	addwfc	prodh,w,c
  4502   00F26A  6E10               	movwf	(??_read_keypad+1)^0,c
  4503   00F26C  5015               	movf	read_keypad@l_cols_counter^0,w,c
  4504   00F26E  260F               	addwf	??_read_keypad^0,f,c
  4505   00F270  0E00               	movlw	0
  4506   00F272  2210               	addwfc	(??_read_keypad+1)^0,f,c
  4507   00F274  C00F  FFF6         	movff	??_read_keypad,tblptrl
  4508   00F278  C010  FFF7         	movff	??_read_keypad+1,tblptrh
  4509   00F27C                     	if	0	;tblptru may be non-zero
  4510   00F27C                     	endif
  4511   00F27C                     	if	0	;tblptru may be non-zero
  4512   00F27C                     	endif
  4513   00F27C  C00D  FFD9         	movff	read_keypad@value,fsr2l
  4514   00F280  C00E  FFDA         	movff	read_keypad@value+1,fsr2h
  4515   00F284  0008               	tblrd		*
  4516   00F286  CFF5 FFDF          	movff	tablat,indf2
  4517   00F28A                     l3132:
  4518                           
  4519                           ;ECU_Layer/ecu_keypad/ecu_keypad.c: 61:             }
  4520   00F28A  2A15               	incf	read_keypad@l_cols_counter^0,f,c
  4521   00F28C  0E03               	movlw	3
  4522   00F28E  6415               	cpfsgt	read_keypad@l_cols_counter^0,c
  4523   00F290  EF4C  F079         	goto	u1611
  4524   00F294  EF4E  F079         	goto	u1610
  4525   00F298                     u1611:
  4526   00F298  EF13  F079         	goto	l3126
  4527   00F29C                     u1610:
  4528   00F29C                     
  4529                           ;ECU_Layer/ecu_keypad/ecu_keypad.c: 63:         }
  4530   00F29C  2A14               	incf	read_keypad@rows_counter^0,f,c
  4531   00F29E  0E03               	movlw	3
  4532   00F2A0  6414               	cpfsgt	read_keypad@rows_counter^0,c
  4533   00F2A2  EF55  F079         	goto	u1621
  4534   00F2A6  EF57  F079         	goto	u1620
  4535   00F2AA                     u1621:
  4536   00F2AA  EFE7  F078         	goto	l3104
  4537   00F2AE                     u1620:
  4538   00F2AE                     l3140:
  4539                           
  4540                           ;ECU_Layer/ecu_keypad/ecu_keypad.c: 67:     return ret;
  4541   00F2AE  5011               	movf	read_keypad@ret^0,w,c
  4542   00F2B0  0012               	return		;funcret
  4543   00F2B2                     __end_of_read_keypad:
  4544                           	callstack 0
  4545                           
  4546 ;; *************** function _gpio_pin_read_logic *****************
  4547 ;; Defined at:
  4548 ;;		line 124 in file "MCAL_Layer/DIO/HAL_GPIO.c"
  4549 ;; Parameters:    Size  Location     Type
  4550 ;;  Pin_config      2    0[COMRAM] PTR const struct .
  4551 ;;		 -> keypad.keypad_cols_pins(4), keypad(8), 
  4552 ;;  logic           2    2[COMRAM] PTR enum E3217
  4553 ;;		 -> read_keypad@pressed_but(1), button_read_state@logic(1), 
  4554 ;; Auto vars:     Size  Location     Type
  4555 ;;  ret             1    9[COMRAM] unsigned char 
  4556 ;; Return value:  Size  Location     Type
  4557 ;;                  1    wreg      unsigned char 
  4558 ;; Registers used:
  4559 ;;		wreg, fsr2l, fsr2h, status,2, status,0, prodl, prodh
  4560 ;; Tracked objects:
  4561 ;;		On entry : 0/0
  4562 ;;		On exit  : 0/0
  4563 ;;		Unchanged: 0/0
  4564 ;; Data sizes:     COMRAM   BANK0   BANK1   BANK2   BANK3   BANK4   BANK5   BANK6   BANK7   BANK8   BANK9  BANK10  BANK1
      +1  BANK12  BANK13  BANK14  BANK15
  4565 ;;      Params:         4       0       0       0       0       0       0       0       0       0       0       0       
      +0       0       0       0       0
  4566 ;;      Locals:         1       0       0       0       0       0       0       0       0       0       0       0       
      +0       0       0       0       0
  4567 ;;      Temps:          5       0       0       0       0       0       0       0       0       0       0       0       
      +0       0       0       0       0
  4568 ;;      Totals:        10       0       0       0       0       0       0       0       0       0       0       0       
      +0       0       0       0       0
  4569 ;;Total ram usage:       10 bytes
  4570 ;; Hardware stack levels used: 1
  4571 ;; This function calls:
  4572 ;;		Nothing
  4573 ;; This function is called by:
  4574 ;;		_read_keypad
  4575 ;;		_button_read_state
  4576 ;; This function uses a non-reentrant model
  4577 ;;
  4578                           
  4579                           	psect	text17
  4580   00EA2A                     __ptext17:
  4581                           	callstack 0
  4582   00EA2A                     _gpio_pin_read_logic:
  4583                           	callstack 28
  4584   00EA2A                     
  4585                           ;MCAL_Layer/DIO/HAL_GPIO.c: 124: STD_ReturnType gpio_pin_read_logic (const Pin_config_t 
      +                          *Pin_config,Logic_t *logic);MCAL_Layer/DIO/HAL_GPIO.c: 125: {;MCAL_Layer/DIO/HAL_GPIO.c:
      +                           126:     STD_ReturnType ret = (STD_ReturnType)0x01;
  4586   00EA2A  0E01               	movlw	1
  4587   00EA2C  6E0A               	movwf	gpio_pin_read_logic@ret^0,c
  4588   00EA2E                     
  4589                           ;MCAL_Layer/DIO/HAL_GPIO.c: 128:     if (((void*)0) == Pin_config|| ((void*)0) == logic)
  4590   00EA2E  5001               	movf	gpio_pin_read_logic@Pin_config^0,w,c
  4591   00EA30  1002               	iorwf	(gpio_pin_read_logic@Pin_config+1)^0,w,c
  4592   00EA32  B4D8               	btfsc	status,2,c
  4593   00EA34  EF1E  F075         	goto	u1521
  4594   00EA38  EF20  F075         	goto	u1520
  4595   00EA3C                     u1521:
  4596   00EA3C  EF29  F075         	goto	l3048
  4597   00EA40                     u1520:
  4598   00EA40  5003               	movf	gpio_pin_read_logic@logic^0,w,c
  4599   00EA42  1004               	iorwf	(gpio_pin_read_logic@logic+1)^0,w,c
  4600   00EA44  A4D8               	btfss	status,2,c
  4601   00EA46  EF27  F075         	goto	u1531
  4602   00EA4A  EF29  F075         	goto	u1530
  4603   00EA4E                     u1531:
  4604   00EA4E  EF2D  F075         	goto	l3050
  4605   00EA52                     u1530:
  4606   00EA52                     l3048:
  4607                           
  4608                           ;MCAL_Layer/DIO/HAL_GPIO.c: 129:     {;MCAL_Layer/DIO/HAL_GPIO.c: 130:         ret = (ST
      +                          D_ReturnType)0x00;
  4609   00EA52  0E00               	movlw	0
  4610   00EA54  6E0A               	movwf	gpio_pin_read_logic@ret^0,c
  4611                           
  4612                           ;MCAL_Layer/DIO/HAL_GPIO.c: 131:     }
  4613   00EA56  EF5E  F075         	goto	l3052
  4614   00EA5A                     l3050:
  4615                           
  4616                           ;MCAL_Layer/DIO/HAL_GPIO.c: 133:     {;MCAL_Layer/DIO/HAL_GPIO.c: 134:         *logic = 
      +                          ( (*PORT_Registers[Pin_config->Port]>>Pin_config->Pin)&1 );
  4617   00EA5A  C001  FFD9         	movff	gpio_pin_read_logic@Pin_config,fsr2l
  4618   00EA5E  C002  FFDA         	movff	gpio_pin_read_logic@Pin_config+1,fsr2h
  4619   00EA62  30DF               	rrcf	223,w,c
  4620   00EA64  32E8               	rrcf	wreg,f,c
  4621   00EA66  32E8               	rrcf	wreg,f,c
  4622   00EA68  0B07               	andlw	7
  4623   00EA6A  6E05               	movwf	??_gpio_pin_read_logic^0,c
  4624   00EA6C  C001  FFD9         	movff	gpio_pin_read_logic@Pin_config,fsr2l
  4625   00EA70  C002  FFDA         	movff	gpio_pin_read_logic@Pin_config+1,fsr2h
  4626   00EA74  50DF               	movf	223,w,c
  4627   00EA76  0B07               	andlw	7
  4628   00EA78  6E06               	movwf	(??_gpio_pin_read_logic+1)^0,c
  4629   00EA7A  5006               	movf	(??_gpio_pin_read_logic+1)^0,w,c
  4630   00EA7C  0D02               	mullw	2
  4631   00EA7E  0E88               	movlw	low _PORT_Registers
  4632   00EA80  24F3               	addwf	243,w,c
  4633   00EA82  6ED9               	movwf	fsr2l,c
  4634   00EA84  0E00               	movlw	high _PORT_Registers
  4635   00EA86  20F4               	addwfc	prodh,w,c
  4636   00EA88  6EDA               	movwf	fsr2h,c
  4637   00EA8A  CFDE F007          	movff	postinc2,??_gpio_pin_read_logic+2
  4638   00EA8E  CFDD F008          	movff	postdec2,??_gpio_pin_read_logic+3
  4639   00EA92  C007  FFD9         	movff	??_gpio_pin_read_logic+2,fsr2l
  4640   00EA96  C008  FFDA         	movff	??_gpio_pin_read_logic+3,fsr2h
  4641   00EA9A  50DF               	movf	indf2,w,c
  4642   00EA9C  6E09               	movwf	(??_gpio_pin_read_logic+4)^0,c
  4643   00EA9E  2A05               	incf	??_gpio_pin_read_logic^0,f,c
  4644   00EAA0  EF54  F075         	goto	u1544
  4645   00EAA4                     u1545:
  4646   00EAA4  90D8               	bcf	status,0,c
  4647   00EAA6  3209               	rrcf	(??_gpio_pin_read_logic+4)^0,f,c
  4648   00EAA8                     u1544:
  4649   00EAA8  2E05               	decfsz	??_gpio_pin_read_logic^0,f,c
  4650   00EAAA  EF52  F075         	goto	u1545
  4651   00EAAE  5009               	movf	(??_gpio_pin_read_logic+4)^0,w,c
  4652   00EAB0  0B01               	andlw	1
  4653   00EAB2  C003  FFD9         	movff	gpio_pin_read_logic@logic,fsr2l
  4654   00EAB6  C004  FFDA         	movff	gpio_pin_read_logic@logic+1,fsr2h
  4655   00EABA  6EDF               	movwf	indf2,c
  4656   00EABC                     l3052:
  4657                           
  4658                           ;MCAL_Layer/DIO/HAL_GPIO.c: 138:     return ret;
  4659   00EABC  500A               	movf	gpio_pin_read_logic@ret^0,w,c
  4660   00EABE  0012               	return		;funcret
  4661   00EAC0                     __end_of_gpio_pin_read_logic:
  4662                           	callstack 0
  4663                           
  4664 ;; *************** function _lcd_4bit_send_char_data_pos *****************
  4665 ;; Defined at:
  4666 ;;		line 120 in file "ECU_Layer/ecu_lcd/ecu_lcd.c"
  4667 ;; Parameters:    Size  Location     Type
  4668 ;;  lcd             2   30[COMRAM] PTR const struct .
  4669 ;;		 -> lcd(6), 
  4670 ;;  data            1   32[COMRAM] unsigned char 
  4671 ;;  row             1   33[COMRAM] unsigned char 
  4672 ;;  col             1   34[COMRAM] unsigned char 
  4673 ;; Auto vars:     Size  Location     Type
  4674 ;;  ret             1   35[COMRAM] unsigned char 
  4675 ;; Return value:  Size  Location     Type
  4676 ;;                  1    wreg      unsigned char 
  4677 ;; Registers used:
  4678 ;;		wreg, fsr2l, fsr2h, status,2, status,0, prodl, prodh, cstack
  4679 ;; Tracked objects:
  4680 ;;		On entry : 0/0
  4681 ;;		On exit  : 0/0
  4682 ;;		Unchanged: 0/0
  4683 ;; Data sizes:     COMRAM   BANK0   BANK1   BANK2   BANK3   BANK4   BANK5   BANK6   BANK7   BANK8   BANK9  BANK10  BANK1
      +1  BANK12  BANK13  BANK14  BANK15
  4684 ;;      Params:         5       0       0       0       0       0       0       0       0       0       0       0       
      +0       0       0       0       0
  4685 ;;      Locals:         1       0       0       0       0       0       0       0       0       0       0       0       
      +0       0       0       0       0
  4686 ;;      Temps:          0       0       0       0       0       0       0       0       0       0       0       0       
      +0       0       0       0       0
  4687 ;;      Totals:         6       0       0       0       0       0       0       0       0       0       0       0       
      +0       0       0       0       0
  4688 ;;Total ram usage:        6 bytes
  4689 ;; Hardware stack levels used: 1
  4690 ;; Hardware stack levels required when called: 4
  4691 ;; This function calls:
  4692 ;;		_gpio_pin_write_logic
  4693 ;;		_lcd_4bit_send_enable
  4694 ;;		_lcd_4bit_set_cursor
  4695 ;;		_lcd_send_4bits
  4696 ;; This function is called by:
  4697 ;;		_open_the_safe_program
  4698 ;;		_set_password
  4699 ;;		_enter_your_password
  4700 ;;		_set_passowrd_frist_time
  4701 ;;		_lcd_4bit_send_custome_char_data_pos
  4702 ;;		_enter_password_again
  4703 ;; This function uses a non-reentrant model
  4704 ;;
  4705                           
  4706                           	psect	text18
  4707   00E9A6                     __ptext18:
  4708                           	callstack 0
  4709   00E9A6                     _lcd_4bit_send_char_data_pos:
  4710                           	callstack 25
  4711   00E9A6                     
  4712                           ;ECU_Layer/ecu_lcd/ecu_lcd.c: 124:     if (((void*)0) == lcd )
  4713   00E9A6  501F               	movf	lcd_4bit_send_char_data_pos@lcd^0,w,c
  4714   00E9A8  1020               	iorwf	(lcd_4bit_send_char_data_pos@lcd+1)^0,w,c
  4715   00E9AA  A4D8               	btfss	status,2,c
  4716   00E9AC  EFDA  F074         	goto	u1631
  4717   00E9B0  EFDC  F074         	goto	u1630
  4718   00E9B4                     u1631:
  4719   00E9B4  EFE0  F074         	goto	l3150
  4720   00E9B8                     u1630:
  4721   00E9B8                     
  4722                           ;ECU_Layer/ecu_lcd/ecu_lcd.c: 125:     {;ECU_Layer/ecu_lcd/ecu_lcd.c: 126:         ret =
      +                           (STD_ReturnType)0x00;
  4723   00E9B8  0E00               	movlw	0
  4724   00E9BA  6E24               	movwf	lcd_4bit_send_char_data_pos@ret^0,c
  4725                           
  4726                           ;ECU_Layer/ecu_lcd/ecu_lcd.c: 127:     }
  4727   00E9BC  EF13  F075         	goto	l3164
  4728   00E9C0                     l3150:
  4729                           
  4730                           ;ECU_Layer/ecu_lcd/ecu_lcd.c: 129:     {;ECU_Layer/ecu_lcd/ecu_lcd.c: 130:         col--
      +                          ;
  4731   00E9C0  0623               	decf	lcd_4bit_send_char_data_pos@col^0,f,c
  4732   00E9C2  C01F  F018         	movff	lcd_4bit_send_char_data_pos@lcd,lcd_4bit_set_cursor@lcd
  4733   00E9C6  C020  F019         	movff	lcd_4bit_send_char_data_pos@lcd+1,lcd_4bit_set_cursor@lcd+1
  4734   00E9CA  C022  F01A         	movff	lcd_4bit_send_char_data_pos@row,lcd_4bit_set_cursor@row
  4735   00E9CE  C023  F01B         	movff	lcd_4bit_send_char_data_pos@col,lcd_4bit_set_cursor@col
  4736   00E9D2  EC0E  F076         	call	_lcd_4bit_set_cursor	;wreg free
  4737   00E9D6  0E01               	movlw	1
  4738   00E9D8  241F               	addwf	lcd_4bit_send_char_data_pos@lcd^0,w,c
  4739   00E9DA  6E01               	movwf	gpio_pin_write_logic@Pin_config^0,c
  4740   00E9DC  0E00               	movlw	0
  4741   00E9DE  2020               	addwfc	(lcd_4bit_send_char_data_pos@lcd+1)^0,w,c
  4742   00E9E0  6E02               	movwf	(gpio_pin_write_logic@Pin_config+1)^0,c
  4743   00E9E2  0E01               	movlw	1
  4744   00E9E4  6E03               	movwf	gpio_pin_write_logic@logic^0,c
  4745   00E9E6  EC38  F077         	call	_gpio_pin_write_logic	;wreg free
  4746   00E9EA  C01F  F00B         	movff	lcd_4bit_send_char_data_pos@lcd,lcd_send_4bits@lcd
  4747   00E9EE  C020  F00C         	movff	lcd_4bit_send_char_data_pos@lcd+1,lcd_send_4bits@lcd+1
  4748   00E9F2  3821               	swapf	lcd_4bit_send_char_data_pos@data^0,w,c
  4749   00E9F4  0B0F               	andlw	15
  4750   00E9F6  6E0D               	movwf	lcd_send_4bits@value^0,c
  4751   00E9F8  ECA0  F072         	call	_lcd_send_4bits	;wreg free
  4752   00E9FC  C01F  F00B         	movff	lcd_4bit_send_char_data_pos@lcd,lcd_4bit_send_enable@lcd
  4753   00EA00  C020  F00C         	movff	lcd_4bit_send_char_data_pos@lcd+1,lcd_4bit_send_enable@lcd+1
  4754   00EA04  EC9C  F071         	call	_lcd_4bit_send_enable	;wreg free
  4755   00EA08  C01F  F00B         	movff	lcd_4bit_send_char_data_pos@lcd,lcd_send_4bits@lcd
  4756   00EA0C  C020  F00C         	movff	lcd_4bit_send_char_data_pos@lcd+1,lcd_send_4bits@lcd+1
  4757   00EA10  C021  F00D         	movff	lcd_4bit_send_char_data_pos@data,lcd_send_4bits@value
  4758   00EA14  ECA0  F072         	call	_lcd_send_4bits	;wreg free
  4759   00EA18                     
  4760                           ;ECU_Layer/ecu_lcd/ecu_lcd.c: 139:         ret = lcd_4bit_send_enable (lcd);
  4761   00EA18  C01F  F00B         	movff	lcd_4bit_send_char_data_pos@lcd,lcd_4bit_send_enable@lcd
  4762   00EA1C  C020  F00C         	movff	lcd_4bit_send_char_data_pos@lcd+1,lcd_4bit_send_enable@lcd+1
  4763   00EA20  EC9C  F071         	call	_lcd_4bit_send_enable	;wreg free
  4764   00EA24  6E24               	movwf	lcd_4bit_send_char_data_pos@ret^0,c
  4765   00EA26                     l3164:
  4766                           
  4767                           ;ECU_Layer/ecu_lcd/ecu_lcd.c: 142:     return ret;
  4768   00EA26  5024               	movf	lcd_4bit_send_char_data_pos@ret^0,w,c
  4769   00EA28  0012               	return		;funcret
  4770   00EA2A                     __end_of_lcd_4bit_send_char_data_pos:
  4771                           	callstack 0
  4772                           
  4773 ;; *************** function _lcd_4bit_set_cursor *****************
  4774 ;; Defined at:
  4775 ;;		line 405 in file "ECU_Layer/ecu_lcd/ecu_lcd.c"
  4776 ;; Parameters:    Size  Location     Type
  4777 ;;  lcd             2   23[COMRAM] PTR const struct .
  4778 ;;		 -> lcd(6), 
  4779 ;;  row             1   25[COMRAM] unsigned char 
  4780 ;;  col             1   26[COMRAM] unsigned char 
  4781 ;; Auto vars:     Size  Location     Type
  4782 ;;  ret             1   29[COMRAM] unsigned char 
  4783 ;; Return value:  Size  Location     Type
  4784 ;;                  1    wreg      unsigned char 
  4785 ;; Registers used:
  4786 ;;		wreg, fsr2l, fsr2h, status,2, status,0, prodl, prodh, cstack
  4787 ;; Tracked objects:
  4788 ;;		On entry : 0/0
  4789 ;;		On exit  : 0/0
  4790 ;;		Unchanged: 0/0
  4791 ;; Data sizes:     COMRAM   BANK0   BANK1   BANK2   BANK3   BANK4   BANK5   BANK6   BANK7   BANK8   BANK9  BANK10  BANK1
      +1  BANK12  BANK13  BANK14  BANK15
  4792 ;;      Params:         4       0       0       0       0       0       0       0       0       0       0       0       
      +0       0       0       0       0
  4793 ;;      Locals:         1       0       0       0       0       0       0       0       0       0       0       0       
      +0       0       0       0       0
  4794 ;;      Temps:          2       0       0       0       0       0       0       0       0       0       0       0       
      +0       0       0       0       0
  4795 ;;      Totals:         7       0       0       0       0       0       0       0       0       0       0       0       
      +0       0       0       0       0
  4796 ;;Total ram usage:        7 bytes
  4797 ;; Hardware stack levels used: 1
  4798 ;; Hardware stack levels required when called: 3
  4799 ;; This function calls:
  4800 ;;		_lcd_4bit_send_cmd
  4801 ;; This function is called by:
  4802 ;;		_lcd_4bit_send_char_data_pos
  4803 ;;		_lcd_4bit_send_string_data_pos
  4804 ;; This function uses a non-reentrant model
  4805 ;;
  4806                           
  4807                           	psect	text19
  4808   00EC1C                     __ptext19:
  4809                           	callstack 0
  4810   00EC1C                     _lcd_4bit_set_cursor:
  4811                           	callstack 24
  4812   00EC1C                     
  4813                           ;ECU_Layer/ecu_lcd/ecu_lcd.c: 409:     if (((void*)0) == lcd )
  4814   00EC1C  5018               	movf	lcd_4bit_set_cursor@lcd^0,w,c
  4815   00EC1E  1019               	iorwf	(lcd_4bit_set_cursor@lcd+1)^0,w,c
  4816   00EC20  A4D8               	btfss	status,2,c
  4817   00EC22  EF15  F076         	goto	u1551
  4818   00EC26  EF17  F076         	goto	u1550
  4819   00EC2A                     u1551:
  4820   00EC2A  EF4B  F076         	goto	l3072
  4821   00EC2E                     u1550:
  4822   00EC2E                     l3060:
  4823                           
  4824                           ;ECU_Layer/ecu_lcd/ecu_lcd.c: 410:     {;ECU_Layer/ecu_lcd/ecu_lcd.c: 411:         ret =
      +                           (STD_ReturnType)0x00;
  4825   00EC2E  0E00               	movlw	0
  4826   00EC30  6E1E               	movwf	lcd_4bit_set_cursor@ret^0,c
  4827                           
  4828                           ;ECU_Layer/ecu_lcd/ecu_lcd.c: 412:     }
  4829   00EC32  EF68  F076         	goto	l3074
  4830   00EC36                     l3062:
  4831   00EC36  C018  F014         	movff	lcd_4bit_set_cursor@lcd,lcd_4bit_send_cmd@lcd
  4832   00EC3A  C019  F015         	movff	lcd_4bit_set_cursor@lcd+1,lcd_4bit_send_cmd@lcd+1
  4833   00EC3E  501B               	movf	lcd_4bit_set_cursor@col^0,w,c
  4834   00EC40  0F80               	addlw	128
  4835   00EC42  6E16               	movwf	lcd_4bit_send_cmd@cmd^0,c
  4836   00EC44  ECDA  F072         	call	_lcd_4bit_send_cmd	;wreg free
  4837   00EC48  6E1E               	movwf	lcd_4bit_set_cursor@ret^0,c
  4838   00EC4A  EF68  F076         	goto	l3074
  4839   00EC4E                     l3064:
  4840   00EC4E  C018  F014         	movff	lcd_4bit_set_cursor@lcd,lcd_4bit_send_cmd@lcd
  4841   00EC52  C019  F015         	movff	lcd_4bit_set_cursor@lcd+1,lcd_4bit_send_cmd@lcd+1
  4842   00EC56  501B               	movf	lcd_4bit_set_cursor@col^0,w,c
  4843   00EC58  0FC0               	addlw	192
  4844   00EC5A  6E16               	movwf	lcd_4bit_send_cmd@cmd^0,c
  4845   00EC5C  ECDA  F072         	call	_lcd_4bit_send_cmd	;wreg free
  4846   00EC60  6E1E               	movwf	lcd_4bit_set_cursor@ret^0,c
  4847   00EC62  EF68  F076         	goto	l3074
  4848   00EC66                     l3066:
  4849   00EC66  C018  F014         	movff	lcd_4bit_set_cursor@lcd,lcd_4bit_send_cmd@lcd
  4850   00EC6A  C019  F015         	movff	lcd_4bit_set_cursor@lcd+1,lcd_4bit_send_cmd@lcd+1
  4851   00EC6E  501B               	movf	lcd_4bit_set_cursor@col^0,w,c
  4852   00EC70  0F94               	addlw	148
  4853   00EC72  6E16               	movwf	lcd_4bit_send_cmd@cmd^0,c
  4854   00EC74  ECDA  F072         	call	_lcd_4bit_send_cmd	;wreg free
  4855   00EC78  6E1E               	movwf	lcd_4bit_set_cursor@ret^0,c
  4856   00EC7A  EF68  F076         	goto	l3074
  4857   00EC7E                     l3068:
  4858   00EC7E  C018  F014         	movff	lcd_4bit_set_cursor@lcd,lcd_4bit_send_cmd@lcd
  4859   00EC82  C019  F015         	movff	lcd_4bit_set_cursor@lcd+1,lcd_4bit_send_cmd@lcd+1
  4860   00EC86  501B               	movf	lcd_4bit_set_cursor@col^0,w,c
  4861   00EC88  0FD4               	addlw	212
  4862   00EC8A  6E16               	movwf	lcd_4bit_send_cmd@cmd^0,c
  4863   00EC8C  ECDA  F072         	call	_lcd_4bit_send_cmd	;wreg free
  4864   00EC90  6E1E               	movwf	lcd_4bit_set_cursor@ret^0,c
  4865   00EC92  EF68  F076         	goto	l3074
  4866   00EC96                     l3072:
  4867   00EC96  501A               	movf	lcd_4bit_set_cursor@row^0,w,c
  4868   00EC98  6E1C               	movwf	??_lcd_4bit_set_cursor^0,c
  4869   00EC9A  6A1D               	clrf	(??_lcd_4bit_set_cursor+1)^0,c
  4870                           
  4871                           ; Switch on 2 bytes has been partitioned into a top level switch of size 1, and 1 sub-sw
      +                          itches
  4872                           ; Switch size 1, requested type "simple"
  4873                           ; Number of cases is 1, Range of values is 0 to 0
  4874                           ; switch strategies available:
  4875                           ; Name         Instructions Cycles
  4876                           ; simple_byte            4     3 (average)
  4877                           ;	Chosen strategy is simple_byte
  4878   00EC9C  501D               	movf	(??_lcd_4bit_set_cursor+1)^0,w,c
  4879   00EC9E  0A00               	xorlw	0	; case 0
  4880   00ECA0  B4D8               	btfsc	status,2,c
  4881   00ECA2  EF55  F076         	goto	l4454
  4882   00ECA6  EF17  F076         	goto	l3060
  4883   00ECAA                     l4454:
  4884                           
  4885                           ; Switch size 1, requested type "simple"
  4886                           ; Number of cases is 4, Range of values is 1 to 4
  4887                           ; switch strategies available:
  4888                           ; Name         Instructions Cycles
  4889                           ; simple_byte           13     7 (average)
  4890                           ;	Chosen strategy is simple_byte
  4891   00ECAA  501C               	movf	??_lcd_4bit_set_cursor^0,w,c
  4892   00ECAC  0A01               	xorlw	1	; case 1
  4893   00ECAE  B4D8               	btfsc	status,2,c
  4894   00ECB0  EF1B  F076         	goto	l3062
  4895   00ECB4  0A03               	xorlw	3	; case 2
  4896   00ECB6  B4D8               	btfsc	status,2,c
  4897   00ECB8  EF27  F076         	goto	l3064
  4898   00ECBC  0A01               	xorlw	1	; case 3
  4899   00ECBE  B4D8               	btfsc	status,2,c
  4900   00ECC0  EF33  F076         	goto	l3066
  4901   00ECC4  0A07               	xorlw	7	; case 4
  4902   00ECC6  B4D8               	btfsc	status,2,c
  4903   00ECC8  EF3F  F076         	goto	l3068
  4904   00ECCC  EF17  F076         	goto	l3060
  4905   00ECD0                     l3074:
  4906                           
  4907                           ;ECU_Layer/ecu_lcd/ecu_lcd.c: 423:     return ret;
  4908   00ECD0  501E               	movf	lcd_4bit_set_cursor@ret^0,w,c
  4909   00ECD2  0012               	return		;funcret
  4910   00ECD4                     __end_of_lcd_4bit_set_cursor:
  4911                           	callstack 0
  4912                           
  4913 ;; *************** function _clear_password_from_eeprom *****************
  4914 ;; Defined at:
  4915 ;;		line 522 in file "App.c"
  4916 ;; Parameters:    Size  Location     Type
  4917 ;;  temp_passwor    1    wreg     unsigned char 
  4918 ;; Auto vars:     Size  Location     Type
  4919 ;;  temp_passwor    1    5[COMRAM] unsigned char 
  4920 ;;  ret             1    4[COMRAM] unsigned char 
  4921 ;; Return value:  Size  Location     Type
  4922 ;;                  1    wreg      unsigned char 
  4923 ;; Registers used:
  4924 ;;		wreg, status,2, status,0, cstack
  4925 ;; Tracked objects:
  4926 ;;		On entry : 0/0
  4927 ;;		On exit  : 0/0
  4928 ;;		Unchanged: 0/0
  4929 ;; Data sizes:     COMRAM   BANK0   BANK1   BANK2   BANK3   BANK4   BANK5   BANK6   BANK7   BANK8   BANK9  BANK10  BANK1
      +1  BANK12  BANK13  BANK14  BANK15
  4930 ;;      Params:         0       0       0       0       0       0       0       0       0       0       0       0       
      +0       0       0       0       0
  4931 ;;      Locals:         2       0       0       0       0       0       0       0       0       0       0       0       
      +0       0       0       0       0
  4932 ;;      Temps:          0       0       0       0       0       0       0       0       0       0       0       0       
      +0       0       0       0       0
  4933 ;;      Totals:         2       0       0       0       0       0       0       0       0       0       0       0       
      +0       0       0       0       0
  4934 ;;Total ram usage:        2 bytes
  4935 ;; Hardware stack levels used: 1
  4936 ;; Hardware stack levels required when called: 1
  4937 ;; This function calls:
  4938 ;;		_EEPROM_WRITE_BYTE
  4939 ;; This function is called by:
  4940 ;;		_set_password
  4941 ;;		_set_passowrd_frist_time
  4942 ;; This function uses a non-reentrant model
  4943 ;;
  4944                           
  4945                           	psect	text20
  4946   00E14A                     __ptext20:
  4947                           	callstack 0
  4948   00E14A                     _clear_password_from_eeprom:
  4949                           	callstack 28
  4950                           
  4951                           ;incstack = 0
  4952                           ;clear_password_from_eeprom@temp_password_digits_counter stored from wreg
  4953   00E14A  6E06               	movwf	clear_password_from_eeprom@temp_password_digits_counter^0,c
  4954   00E14C                     
  4955                           ;App.c: 523:     STD_ReturnType ret = (STD_ReturnType)0x01;
  4956   00E14C  0E01               	movlw	1
  4957   00E14E  6E05               	movwf	clear_password_from_eeprom@ret^0,c
  4958                           
  4959                           ;App.c: 524:     while(temp_password_digits_counter <= 10){
  4960   00E150  EFB3  F070         	goto	l3542
  4961   00E154                     l3538:
  4962                           
  4963                           ;App.c: 525:         ret = EEPROM_WRITE_BYTE((0x0000+temp_password_digits_counter),0xff)
      +                          ;
  4964   00E154  C006  F001         	movff	clear_password_from_eeprom@temp_password_digits_counter,EEPROM_WRITE_BYTE@bAdd
  4965   00E158  6A02               	clrf	(EEPROM_WRITE_BYTE@bAdd+1)^0,c
  4966   00E15A  0EFF               	movlw	255
  4967   00E15C  6E03               	movwf	EEPROM_WRITE_BYTE@data^0,c
  4968   00E15E  ECC0  F071         	call	_EEPROM_WRITE_BYTE	;wreg free
  4969   00E162  6E05               	movwf	clear_password_from_eeprom@ret^0,c
  4970   00E164                     
  4971                           ;App.c: 526:         temp_password_digits_counter++;
  4972   00E164  2A06               	incf	clear_password_from_eeprom@temp_password_digits_counter^0,f,c
  4973   00E166                     l3542:
  4974                           
  4975                           ;App.c: 524:     while(temp_password_digits_counter <= 10){
  4976   00E166  0E0A               	movlw	10
  4977   00E168  6406               	cpfsgt	clear_password_from_eeprom@temp_password_digits_counter^0,c
  4978   00E16A  EFB9  F070         	goto	u1971
  4979   00E16E  EFBB  F070         	goto	u1970
  4980   00E172                     u1971:
  4981   00E172  EFAA  F070         	goto	l3538
  4982   00E176                     u1970:
  4983   00E176                     
  4984                           ;App.c: 528:     return ret;
  4985   00E176  5005               	movf	clear_password_from_eeprom@ret^0,w,c
  4986   00E178  0012               	return		;funcret
  4987   00E17A                     __end_of_clear_password_from_eeprom:
  4988                           	callstack 0
  4989                           
  4990 ;; *************** function _EEPROM_WRITE_BYTE *****************
  4991 ;; Defined at:
  4992 ;;		line 4 in file "MCAL_Layer/EEPROM/mcal_eeprom.c"
  4993 ;; Parameters:    Size  Location     Type
  4994 ;;  bAdd            2    0[COMRAM] unsigned int 
  4995 ;;  data            1    2[COMRAM] unsigned char 
  4996 ;; Auto vars:     Size  Location     Type
  4997 ;;  interrupt_st    1    3[COMRAM] unsigned char 
  4998 ;;  ret             1    0        unsigned char 
  4999 ;; Return value:  Size  Location     Type
  5000 ;;                  1    wreg      unsigned char 
  5001 ;; Registers used:
  5002 ;;		wreg, status,2, status,0
  5003 ;; Tracked objects:
  5004 ;;		On entry : 0/0
  5005 ;;		On exit  : 0/0
  5006 ;;		Unchanged: 0/0
  5007 ;; Data sizes:     COMRAM   BANK0   BANK1   BANK2   BANK3   BANK4   BANK5   BANK6   BANK7   BANK8   BANK9  BANK10  BANK1
      +1  BANK12  BANK13  BANK14  BANK15
  5008 ;;      Params:         3       0       0       0       0       0       0       0       0       0       0       0       
      +0       0       0       0       0
  5009 ;;      Locals:         1       0       0       0       0       0       0       0       0       0       0       0       
      +0       0       0       0       0
  5010 ;;      Temps:          0       0       0       0       0       0       0       0       0       0       0       0       
      +0       0       0       0       0
  5011 ;;      Totals:         4       0       0       0       0       0       0       0       0       0       0       0       
      +0       0       0       0       0
  5012 ;;Total ram usage:        4 bytes
  5013 ;; Hardware stack levels used: 1
  5014 ;; This function calls:
  5015 ;;		Nothing
  5016 ;; This function is called by:
  5017 ;;		_set_passowrd_frist_time
  5018 ;;		_write_the_password_in_eeprom
  5019 ;;		_clear_password_from_eeprom
  5020 ;; This function uses a non-reentrant model
  5021 ;;
  5022                           
  5023                           	psect	text21
  5024   00E380                     __ptext21:
  5025                           	callstack 0
  5026   00E380                     _EEPROM_WRITE_BYTE:
  5027                           	callstack 28
  5028   00E380                     
  5029                           ;MCAL_Layer/EEPROM/mcal_eeprom.c: 7:     uint8 interrupt_status =0;
  5030   00E380  0E00               	movlw	0
  5031   00E382  6E04               	movwf	EEPROM_WRITE_BYTE@interrupt_status^0,c
  5032   00E384                     
  5033                           ;MCAL_Layer/EEPROM/mcal_eeprom.c: 8:     interrupt_status = INTCONbits.GIE;
  5034   00E384  0E00               	movlw	0
  5035   00E386  BEF2               	btfsc	242,7,c	;volatile
  5036   00E388  0E01               	movlw	1
  5037   00E38A  6E04               	movwf	EEPROM_WRITE_BYTE@interrupt_status^0,c
  5038   00E38C                     
  5039                           ;MCAL_Layer/EEPROM/mcal_eeprom.c: 10:     EEADRH = (uint8)((bAdd>>8)&(0x03));
  5040   00E38C  5002               	movf	(EEPROM_WRITE_BYTE@bAdd+1)^0,w,c
  5041   00E38E  0B03               	andlw	3
  5042   00E390  6EAA               	movwf	170,c	;volatile
  5043   00E392                     
  5044                           ;MCAL_Layer/EEPROM/mcal_eeprom.c: 11:     EEADR =(uint8)((bAdd)&(0xff));
  5045   00E392  C001  FFA9         	movff	EEPROM_WRITE_BYTE@bAdd,4009	;volatile
  5046   00E396                     
  5047                           ;MCAL_Layer/EEPROM/mcal_eeprom.c: 13:     EEDATA = data;
  5048   00E396  C003  FFA8         	movff	EEPROM_WRITE_BYTE@data,4008	;volatile
  5049   00E39A                     
  5050                           ;MCAL_Layer/EEPROM/mcal_eeprom.c: 15:     (EECON1bits.EEPGD = 0);
  5051   00E39A  9EA6               	bcf	166,7,c	;volsfr
  5052   00E39C                     
  5053                           ;MCAL_Layer/EEPROM/mcal_eeprom.c: 17:     (EECON1bits.CFGS = 0);
  5054   00E39C  9CA6               	bcf	166,6,c	;volsfr
  5055   00E39E                     
  5056                           ;MCAL_Layer/EEPROM/mcal_eeprom.c: 19:     (EECON1bits.WREN =1);
  5057   00E39E  84A6               	bsf	166,2,c	;volsfr
  5058   00E3A0                     
  5059                           ;MCAL_Layer/EEPROM/mcal_eeprom.c: 21:     (( INTCON &= ~(1<<(7)) ));
  5060   00E3A0  9EF2               	bcf	242,7,c	;volatile
  5061                           
  5062                           ;MCAL_Layer/EEPROM/mcal_eeprom.c: 23:     EECON2 = 0x55;
  5063   00E3A2  0E55               	movlw	85
  5064   00E3A4  6EA7               	movwf	167,c	;volsfr
  5065                           
  5066                           ;MCAL_Layer/EEPROM/mcal_eeprom.c: 24:     EECON2 = 0x0AA;
  5067   00E3A6  0EAA               	movlw	170
  5068   00E3A8  6EA7               	movwf	167,c	;volsfr
  5069   00E3AA                     
  5070                           ;MCAL_Layer/EEPROM/mcal_eeprom.c: 26:     (EECON1bits.WR =1);
  5071   00E3AA  82A6               	bsf	166,1,c	;volsfr
  5072   00E3AC                     l479:
  5073   00E3AC  B2A6               	btfsc	166,1,c	;volsfr
  5074   00E3AE  EFDB  F071         	goto	u1661
  5075   00E3B2  EFDD  F071         	goto	u1660
  5076   00E3B6                     u1661:
  5077   00E3B6  EFD6  F071         	goto	l479
  5078   00E3BA                     u1660:
  5079   00E3BA                     
  5080                           ;MCAL_Layer/EEPROM/mcal_eeprom.c: 30:     INTCONbits.GIE = interrupt_status;
  5081   00E3BA  B004               	btfsc	EEPROM_WRITE_BYTE@interrupt_status^0,0,c
  5082   00E3BC  D002               	bra	u1675
  5083   00E3BE  9EF2               	bcf	242,7,c	;volatile
  5084   00E3C0  D001               	bra	u1676
  5085   00E3C2                     u1675:
  5086   00E3C2  8EF2               	bsf	242,7,c	;volatile
  5087   00E3C4                     u1676:
  5088                           
  5089                           ;MCAL_Layer/EEPROM/mcal_eeprom.c: 32:     (EECON1bits.WREN =0);
  5090   00E3C4  94A6               	bcf	166,2,c	;volsfr
  5091   00E3C6                     
  5092                           ;MCAL_Layer/EEPROM/mcal_eeprom.c: 33:     return ret;
  5093   00E3C6  0E01               	movlw	1
  5094   00E3C8  0012               	return		;funcret
  5095   00E3CA                     __end_of_EEPROM_WRITE_BYTE:
  5096                           	callstack 0
  5097                           
  5098 ;; *************** function _buzzer_turn_on *****************
  5099 ;; Defined at:
  5100 ;;		line 33 in file "ECU_Layer/ecu_buzzer/ecu_buzzer.c"
  5101 ;; Parameters:    Size  Location     Type
  5102 ;;  buzzer_obj      2   10[COMRAM] PTR const struct .
  5103 ;;		 -> buzzer(1), 
  5104 ;; Auto vars:     Size  Location     Type
  5105 ;;  Pin_config      1   14[COMRAM] struct .
  5106 ;;  ret             1   13[COMRAM] unsigned char 
  5107 ;; Return value:  Size  Location     Type
  5108 ;;                  1    wreg      unsigned char 
  5109 ;; Registers used:
  5110 ;;		wreg, fsr2l, fsr2h, status,2, status,0, prodl, prodh, cstack
  5111 ;; Tracked objects:
  5112 ;;		On entry : 0/0
  5113 ;;		On exit  : 0/0
  5114 ;;		Unchanged: 0/0
  5115 ;; Data sizes:     COMRAM   BANK0   BANK1   BANK2   BANK3   BANK4   BANK5   BANK6   BANK7   BANK8   BANK9  BANK10  BANK1
      +1  BANK12  BANK13  BANK14  BANK15
  5116 ;;      Params:         2       0       0       0       0       0       0       0       0       0       0       0       
      +0       0       0       0       0
  5117 ;;      Locals:         2       0       0       0       0       0       0       0       0       0       0       0       
      +0       0       0       0       0
  5118 ;;      Temps:          1       0       0       0       0       0       0       0       0       0       0       0       
      +0       0       0       0       0
  5119 ;;      Totals:         5       0       0       0       0       0       0       0       0       0       0       0       
      +0       0       0       0       0
  5120 ;;Total ram usage:        5 bytes
  5121 ;; Hardware stack levels used: 1
  5122 ;; Hardware stack levels required when called: 1
  5123 ;; This function calls:
  5124 ;;		_gpio_pin_write_logic
  5125 ;; This function is called by:
  5126 ;;		_main
  5127 ;;		_open_the_safe_program
  5128 ;;		_set_password
  5129 ;;		_set_passowrd_frist_time
  5130 ;; This function uses a non-reentrant model
  5131 ;;
  5132                           
  5133                           	psect	text22
  5134   00E924                     __ptext22:
  5135                           	callstack 0
  5136   00E924                     _buzzer_turn_on:
  5137                           	callstack 28
  5138   00E924                     
  5139                           ;ECU_Layer/ecu_buzzer/ecu_buzzer.c: 37:     if (((void*)0) == buzzer_obj )
  5140   00E924  500B               	movf	buzzer_turn_on@buzzer_obj^0,w,c
  5141   00E926  100C               	iorwf	(buzzer_turn_on@buzzer_obj+1)^0,w,c
  5142   00E928  A4D8               	btfss	status,2,c
  5143   00E92A  EF99  F074         	goto	u1711
  5144   00E92E  EF9B  F074         	goto	u1710
  5145   00E932                     u1711:
  5146   00E932  EF9F  F074         	goto	l38
  5147   00E936                     u1710:
  5148   00E936                     
  5149                           ;ECU_Layer/ecu_buzzer/ecu_buzzer.c: 38:     {;ECU_Layer/ecu_buzzer/ecu_buzzer.c: 39:    
      +                               ret = (STD_ReturnType)0x00;
  5150   00E936  0E00               	movlw	0
  5151   00E938  6E0E               	movwf	buzzer_turn_on@ret^0,c
  5152                           
  5153                           ;ECU_Layer/ecu_buzzer/ecu_buzzer.c: 40:     }
  5154   00E93A  EFD1  F074         	goto	l3276
  5155   00E93E                     l38:
  5156                           
  5157                           ;ECU_Layer/ecu_buzzer/ecu_buzzer.c: 42:     {;ECU_Layer/ecu_buzzer/ecu_buzzer.c: 43:    
      +                               Pin_config_t Pin_config={
  5158   00E93E  C05D  F00F         	movff	buzzer_turn_on@F3302,buzzer_turn_on@Pin_config
  5159   00E942  C00B  FFD9         	movff	buzzer_turn_on@buzzer_obj,fsr2l
  5160   00E946  C00C  FFDA         	movff	buzzer_turn_on@buzzer_obj+1,fsr2h
  5161   00E94A  50DF               	movf	223,w,c
  5162   00E94C  0B07               	andlw	7
  5163   00E94E  6E0D               	movwf	??_buzzer_turn_on^0,c
  5164   00E950  500F               	movf	buzzer_turn_on@Pin_config^0,w,c
  5165   00E952  180D               	xorwf	??_buzzer_turn_on^0,w,c
  5166   00E954  0BF8               	andlw	-8
  5167   00E956  180D               	xorwf	??_buzzer_turn_on^0,w,c
  5168   00E958  6E0F               	movwf	buzzer_turn_on@Pin_config^0,c
  5169   00E95A  C00B  FFD9         	movff	buzzer_turn_on@buzzer_obj,fsr2l
  5170   00E95E  C00C  FFDA         	movff	buzzer_turn_on@buzzer_obj+1,fsr2h
  5171   00E962  30DF               	rrcf	223,w,c
  5172   00E964  32E8               	rrcf	wreg,f,c
  5173   00E966  32E8               	rrcf	wreg,f,c
  5174   00E968  0B07               	andlw	7
  5175   00E96A  6E0D               	movwf	??_buzzer_turn_on^0,c
  5176   00E96C  460D               	rlncf	??_buzzer_turn_on^0,f,c
  5177   00E96E  460D               	rlncf	??_buzzer_turn_on^0,f,c
  5178   00E970  460D               	rlncf	??_buzzer_turn_on^0,f,c
  5179   00E972  500F               	movf	buzzer_turn_on@Pin_config^0,w,c
  5180   00E974  180D               	xorwf	??_buzzer_turn_on^0,w,c
  5181   00E976  0BC7               	andlw	-57
  5182   00E978  180D               	xorwf	??_buzzer_turn_on^0,w,c
  5183   00E97A  6E0F               	movwf	buzzer_turn_on@Pin_config^0,c
  5184   00E97C  C00B  FFD9         	movff	buzzer_turn_on@buzzer_obj,fsr2l
  5185   00E980  C00C  FFDA         	movff	buzzer_turn_on@buzzer_obj+1,fsr2h
  5186   00E984  ACDF               	btfss	indf2,6,c
  5187   00E986  D002               	bra	u1725
  5188   00E988  8C0F               	bsf	buzzer_turn_on@Pin_config^0,6,c
  5189   00E98A  D001               	bra	u1727
  5190   00E98C                     u1725:
  5191   00E98C  9C0F               	bcf	buzzer_turn_on@Pin_config^0,6,c
  5192   00E98E                     u1727:
  5193   00E98E  9E0F               	bcf	buzzer_turn_on@Pin_config^0,7,c
  5194   00E990                     
  5195                           ;ECU_Layer/ecu_buzzer/ecu_buzzer.c: 49:         ret = gpio_pin_write_logic(&Pin_config,G
      +                          PIO_high);
  5196   00E990  0E0F               	movlw	low buzzer_turn_on@Pin_config
  5197   00E992  6E01               	movwf	gpio_pin_write_logic@Pin_config^0,c
  5198   00E994  0E00               	movlw	high buzzer_turn_on@Pin_config
  5199   00E996  6E02               	movwf	(gpio_pin_write_logic@Pin_config+1)^0,c
  5200   00E998  0E01               	movlw	1
  5201   00E99A  6E03               	movwf	gpio_pin_write_logic@logic^0,c
  5202   00E99C  EC38  F077         	call	_gpio_pin_write_logic	;wreg free
  5203   00E9A0  6E0E               	movwf	buzzer_turn_on@ret^0,c
  5204   00E9A2                     l3276:
  5205                           
  5206                           ;ECU_Layer/ecu_buzzer/ecu_buzzer.c: 51:     return ret;
  5207   00E9A2  500E               	movf	buzzer_turn_on@ret^0,w,c
  5208   00E9A4  0012               	return		;funcret
  5209   00E9A6                     __end_of_buzzer_turn_on:
  5210                           	callstack 0
  5211                           
  5212 ;; *************** function _buzzer_turn_off *****************
  5213 ;; Defined at:
  5214 ;;		line 58 in file "ECU_Layer/ecu_buzzer/ecu_buzzer.c"
  5215 ;; Parameters:    Size  Location     Type
  5216 ;;  buzzer_obj      2   10[COMRAM] PTR const struct .
  5217 ;;		 -> buzzer(1), 
  5218 ;; Auto vars:     Size  Location     Type
  5219 ;;  Pin_config      1   14[COMRAM] struct .
  5220 ;;  ret             1   13[COMRAM] unsigned char 
  5221 ;; Return value:  Size  Location     Type
  5222 ;;                  1    wreg      unsigned char 
  5223 ;; Registers used:
  5224 ;;		wreg, fsr2l, fsr2h, status,2, status,0, prodl, prodh, cstack
  5225 ;; Tracked objects:
  5226 ;;		On entry : 0/0
  5227 ;;		On exit  : 0/0
  5228 ;;		Unchanged: 0/0
  5229 ;; Data sizes:     COMRAM   BANK0   BANK1   BANK2   BANK3   BANK4   BANK5   BANK6   BANK7   BANK8   BANK9  BANK10  BANK1
      +1  BANK12  BANK13  BANK14  BANK15
  5230 ;;      Params:         2       0       0       0       0       0       0       0       0       0       0       0       
      +0       0       0       0       0
  5231 ;;      Locals:         2       0       0       0       0       0       0       0       0       0       0       0       
      +0       0       0       0       0
  5232 ;;      Temps:          1       0       0       0       0       0       0       0       0       0       0       0       
      +0       0       0       0       0
  5233 ;;      Totals:         5       0       0       0       0       0       0       0       0       0       0       0       
      +0       0       0       0       0
  5234 ;;Total ram usage:        5 bytes
  5235 ;; Hardware stack levels used: 1
  5236 ;; Hardware stack levels required when called: 1
  5237 ;; This function calls:
  5238 ;;		_gpio_pin_write_logic
  5239 ;; This function is called by:
  5240 ;;		_open_the_safe_program
  5241 ;;		_set_password
  5242 ;;		_set_passowrd_frist_time
  5243 ;; This function uses a non-reentrant model
  5244 ;;
  5245                           
  5246                           	psect	text23
  5247   00E8A2                     __ptext23:
  5248                           	callstack 0
  5249   00E8A2                     _buzzer_turn_off:
  5250                           	callstack 28
  5251   00E8A2                     
  5252                           ;ECU_Layer/ecu_buzzer/ecu_buzzer.c: 62:     if (((void*)0) == buzzer_obj )
  5253   00E8A2  500B               	movf	buzzer_turn_off@buzzer_obj^0,w,c
  5254   00E8A4  100C               	iorwf	(buzzer_turn_off@buzzer_obj+1)^0,w,c
  5255   00E8A6  A4D8               	btfss	status,2,c
  5256   00E8A8  EF58  F074         	goto	u1731
  5257   00E8AC  EF5A  F074         	goto	u1730
  5258   00E8B0                     u1731:
  5259   00E8B0  EF5E  F074         	goto	l45
  5260   00E8B4                     u1730:
  5261   00E8B4                     
  5262                           ;ECU_Layer/ecu_buzzer/ecu_buzzer.c: 63:     {;ECU_Layer/ecu_buzzer/ecu_buzzer.c: 64:    
      +                               ret = (STD_ReturnType)0x00;
  5263   00E8B4  0E00               	movlw	0
  5264   00E8B6  6E0E               	movwf	buzzer_turn_off@ret^0,c
  5265                           
  5266                           ;ECU_Layer/ecu_buzzer/ecu_buzzer.c: 65:     }
  5267   00E8B8  EF90  F074         	goto	l3294
  5268   00E8BC                     l45:
  5269                           
  5270                           ;ECU_Layer/ecu_buzzer/ecu_buzzer.c: 67:     {;ECU_Layer/ecu_buzzer/ecu_buzzer.c: 68:    
      +                               Pin_config_t Pin_config={
  5271   00E8BC  C05C  F00F         	movff	buzzer_turn_off@F3307,buzzer_turn_off@Pin_config
  5272   00E8C0  C00B  FFD9         	movff	buzzer_turn_off@buzzer_obj,fsr2l
  5273   00E8C4  C00C  FFDA         	movff	buzzer_turn_off@buzzer_obj+1,fsr2h
  5274   00E8C8  50DF               	movf	223,w,c
  5275   00E8CA  0B07               	andlw	7
  5276   00E8CC  6E0D               	movwf	??_buzzer_turn_off^0,c
  5277   00E8CE  500F               	movf	buzzer_turn_off@Pin_config^0,w,c
  5278   00E8D0  180D               	xorwf	??_buzzer_turn_off^0,w,c
  5279   00E8D2  0BF8               	andlw	-8
  5280   00E8D4  180D               	xorwf	??_buzzer_turn_off^0,w,c
  5281   00E8D6  6E0F               	movwf	buzzer_turn_off@Pin_config^0,c
  5282   00E8D8  C00B  FFD9         	movff	buzzer_turn_off@buzzer_obj,fsr2l
  5283   00E8DC  C00C  FFDA         	movff	buzzer_turn_off@buzzer_obj+1,fsr2h
  5284   00E8E0  30DF               	rrcf	223,w,c
  5285   00E8E2  32E8               	rrcf	wreg,f,c
  5286   00E8E4  32E8               	rrcf	wreg,f,c
  5287   00E8E6  0B07               	andlw	7
  5288   00E8E8  6E0D               	movwf	??_buzzer_turn_off^0,c
  5289   00E8EA  460D               	rlncf	??_buzzer_turn_off^0,f,c
  5290   00E8EC  460D               	rlncf	??_buzzer_turn_off^0,f,c
  5291   00E8EE  460D               	rlncf	??_buzzer_turn_off^0,f,c
  5292   00E8F0  500F               	movf	buzzer_turn_off@Pin_config^0,w,c
  5293   00E8F2  180D               	xorwf	??_buzzer_turn_off^0,w,c
  5294   00E8F4  0BC7               	andlw	-57
  5295   00E8F6  180D               	xorwf	??_buzzer_turn_off^0,w,c
  5296   00E8F8  6E0F               	movwf	buzzer_turn_off@Pin_config^0,c
  5297   00E8FA  C00B  FFD9         	movff	buzzer_turn_off@buzzer_obj,fsr2l
  5298   00E8FE  C00C  FFDA         	movff	buzzer_turn_off@buzzer_obj+1,fsr2h
  5299   00E902  ACDF               	btfss	indf2,6,c
  5300   00E904  D002               	bra	u1745
  5301   00E906  8C0F               	bsf	buzzer_turn_off@Pin_config^0,6,c
  5302   00E908  D001               	bra	u1747
  5303   00E90A                     u1745:
  5304   00E90A  9C0F               	bcf	buzzer_turn_off@Pin_config^0,6,c
  5305   00E90C                     u1747:
  5306   00E90C  9E0F               	bcf	buzzer_turn_off@Pin_config^0,7,c
  5307   00E90E                     
  5308                           ;ECU_Layer/ecu_buzzer/ecu_buzzer.c: 74:         ret = gpio_pin_write_logic(&Pin_config,G
      +                          PIO_low);
  5309   00E90E  0E0F               	movlw	low buzzer_turn_off@Pin_config
  5310   00E910  6E01               	movwf	gpio_pin_write_logic@Pin_config^0,c
  5311   00E912  0E00               	movlw	high buzzer_turn_off@Pin_config
  5312   00E914  6E02               	movwf	(gpio_pin_write_logic@Pin_config+1)^0,c
  5313   00E916  0E00               	movlw	0
  5314   00E918  6E03               	movwf	gpio_pin_write_logic@logic^0,c
  5315   00E91A  EC38  F077         	call	_gpio_pin_write_logic	;wreg free
  5316   00E91E  6E0E               	movwf	buzzer_turn_off@ret^0,c
  5317   00E920                     l3294:
  5318                           
  5319                           ;ECU_Layer/ecu_buzzer/ecu_buzzer.c: 76:     return ret;
  5320   00E920  500E               	movf	buzzer_turn_off@ret^0,w,c
  5321   00E922  0012               	return		;funcret
  5322   00E924                     __end_of_buzzer_turn_off:
  5323                           	callstack 0
  5324                           
  5325 ;; *************** function _Led_turn_on *****************
  5326 ;; Defined at:
  5327 ;;		line 32 in file "ECU_Layer/ecu_led/ecu_led.c"
  5328 ;; Parameters:    Size  Location     Type
  5329 ;;  led             2   10[COMRAM] PTR const struct .
  5330 ;;		 -> red_led(1), green_led(1), 
  5331 ;; Auto vars:     Size  Location     Type
  5332 ;;  Pin_config      1   14[COMRAM] struct .
  5333 ;;  ret             1   13[COMRAM] unsigned char 
  5334 ;; Return value:  Size  Location     Type
  5335 ;;                  1    wreg      unsigned char 
  5336 ;; Registers used:
  5337 ;;		wreg, fsr2l, fsr2h, status,2, status,0, prodl, prodh, cstack
  5338 ;; Tracked objects:
  5339 ;;		On entry : 0/0
  5340 ;;		On exit  : 0/0
  5341 ;;		Unchanged: 0/0
  5342 ;; Data sizes:     COMRAM   BANK0   BANK1   BANK2   BANK3   BANK4   BANK5   BANK6   BANK7   BANK8   BANK9  BANK10  BANK1
      +1  BANK12  BANK13  BANK14  BANK15
  5343 ;;      Params:         2       0       0       0       0       0       0       0       0       0       0       0       
      +0       0       0       0       0
  5344 ;;      Locals:         2       0       0       0       0       0       0       0       0       0       0       0       
      +0       0       0       0       0
  5345 ;;      Temps:          1       0       0       0       0       0       0       0       0       0       0       0       
      +0       0       0       0       0
  5346 ;;      Totals:         5       0       0       0       0       0       0       0       0       0       0       0       
      +0       0       0       0       0
  5347 ;;Total ram usage:        5 bytes
  5348 ;; Hardware stack levels used: 1
  5349 ;; Hardware stack levels required when called: 1
  5350 ;; This function calls:
  5351 ;;		_gpio_pin_write_logic
  5352 ;; This function is called by:
  5353 ;;		_main
  5354 ;;		_open_the_safe_program
  5355 ;;		_set_password
  5356 ;;		_set_passowrd_frist_time
  5357 ;; This function uses a non-reentrant model
  5358 ;;
  5359                           
  5360                           	psect	text24
  5361   00E820                     __ptext24:
  5362                           	callstack 0
  5363   00E820                     _Led_turn_on:
  5364                           	callstack 28
  5365   00E820                     
  5366                           ;ECU_Layer/ecu_led/ecu_led.c: 36:     if (((void*)0) == led )
  5367   00E820  500B               	movf	Led_turn_on@led^0,w,c
  5368   00E822  100C               	iorwf	(Led_turn_on@led+1)^0,w,c
  5369   00E824  A4D8               	btfss	status,2,c
  5370   00E826  EF17  F074         	goto	u1831
  5371   00E82A  EF19  F074         	goto	u1830
  5372   00E82E                     u1831:
  5373   00E82E  EF1D  F074         	goto	l308
  5374   00E832                     u1830:
  5375   00E832                     
  5376                           ;ECU_Layer/ecu_led/ecu_led.c: 37:     {;ECU_Layer/ecu_led/ecu_led.c: 38:         ret = (
      +                          STD_ReturnType)0x00;
  5377   00E832  0E00               	movlw	0
  5378   00E834  6E0E               	movwf	Led_turn_on@ret^0,c
  5379                           
  5380                           ;ECU_Layer/ecu_led/ecu_led.c: 39:     }
  5381   00E836  EF4F  F074         	goto	l3422
  5382   00E83A                     l308:
  5383                           
  5384                           ;ECU_Layer/ecu_led/ecu_led.c: 41:     {;ECU_Layer/ecu_led/ecu_led.c: 42:         Pin_con
      +                          fig_t Pin_config={
  5385   00E83A  C059  F00F         	movff	Led_turn_on@F3302,Led_turn_on@Pin_config
  5386   00E83E  C00B  FFD9         	movff	Led_turn_on@led,fsr2l
  5387   00E842  C00C  FFDA         	movff	Led_turn_on@led+1,fsr2h
  5388   00E846  50DF               	movf	223,w,c
  5389   00E848  0B07               	andlw	7
  5390   00E84A  6E0D               	movwf	??_Led_turn_on^0,c
  5391   00E84C  500F               	movf	Led_turn_on@Pin_config^0,w,c
  5392   00E84E  180D               	xorwf	??_Led_turn_on^0,w,c
  5393   00E850  0BF8               	andlw	-8
  5394   00E852  180D               	xorwf	??_Led_turn_on^0,w,c
  5395   00E854  6E0F               	movwf	Led_turn_on@Pin_config^0,c
  5396   00E856  C00B  FFD9         	movff	Led_turn_on@led,fsr2l
  5397   00E85A  C00C  FFDA         	movff	Led_turn_on@led+1,fsr2h
  5398   00E85E  30DF               	rrcf	223,w,c
  5399   00E860  32E8               	rrcf	wreg,f,c
  5400   00E862  32E8               	rrcf	wreg,f,c
  5401   00E864  0B07               	andlw	7
  5402   00E866  6E0D               	movwf	??_Led_turn_on^0,c
  5403   00E868  460D               	rlncf	??_Led_turn_on^0,f,c
  5404   00E86A  460D               	rlncf	??_Led_turn_on^0,f,c
  5405   00E86C  460D               	rlncf	??_Led_turn_on^0,f,c
  5406   00E86E  500F               	movf	Led_turn_on@Pin_config^0,w,c
  5407   00E870  180D               	xorwf	??_Led_turn_on^0,w,c
  5408   00E872  0BC7               	andlw	-57
  5409   00E874  180D               	xorwf	??_Led_turn_on^0,w,c
  5410   00E876  6E0F               	movwf	Led_turn_on@Pin_config^0,c
  5411   00E878  C00B  FFD9         	movff	Led_turn_on@led,fsr2l
  5412   00E87C  C00C  FFDA         	movff	Led_turn_on@led+1,fsr2h
  5413   00E880  ACDF               	btfss	indf2,6,c
  5414   00E882  D002               	bra	u1845
  5415   00E884  8C0F               	bsf	Led_turn_on@Pin_config^0,6,c
  5416   00E886  D001               	bra	u1847
  5417   00E888                     u1845:
  5418   00E888  9C0F               	bcf	Led_turn_on@Pin_config^0,6,c
  5419   00E88A                     u1847:
  5420   00E88A  9E0F               	bcf	Led_turn_on@Pin_config^0,7,c
  5421   00E88C                     
  5422                           ;ECU_Layer/ecu_led/ecu_led.c: 48:         ret = gpio_pin_write_logic(&Pin_config,GPIO_hi
      +                          gh);
  5423   00E88C  0E0F               	movlw	low Led_turn_on@Pin_config
  5424   00E88E  6E01               	movwf	gpio_pin_write_logic@Pin_config^0,c
  5425   00E890  0E00               	movlw	high Led_turn_on@Pin_config
  5426   00E892  6E02               	movwf	(gpio_pin_write_logic@Pin_config+1)^0,c
  5427   00E894  0E01               	movlw	1
  5428   00E896  6E03               	movwf	gpio_pin_write_logic@logic^0,c
  5429   00E898  EC38  F077         	call	_gpio_pin_write_logic	;wreg free
  5430   00E89C  6E0E               	movwf	Led_turn_on@ret^0,c
  5431   00E89E                     l3422:
  5432                           
  5433                           ;ECU_Layer/ecu_led/ecu_led.c: 50:     return ret;
  5434   00E89E  500E               	movf	Led_turn_on@ret^0,w,c
  5435   00E8A0  0012               	return		;funcret
  5436   00E8A2                     __end_of_Led_turn_on:
  5437                           	callstack 0
  5438                           
  5439 ;; *************** function _Led_turn_off *****************
  5440 ;; Defined at:
  5441 ;;		line 57 in file "ECU_Layer/ecu_led/ecu_led.c"
  5442 ;; Parameters:    Size  Location     Type
  5443 ;;  led             2   10[COMRAM] PTR const struct .
  5444 ;;		 -> red_led(1), green_led(1), 
  5445 ;; Auto vars:     Size  Location     Type
  5446 ;;  Pin_config      1   14[COMRAM] struct .
  5447 ;;  ret             1   13[COMRAM] unsigned char 
  5448 ;; Return value:  Size  Location     Type
  5449 ;;                  1    wreg      unsigned char 
  5450 ;; Registers used:
  5451 ;;		wreg, fsr2l, fsr2h, status,2, status,0, prodl, prodh, cstack
  5452 ;; Tracked objects:
  5453 ;;		On entry : 0/0
  5454 ;;		On exit  : 0/0
  5455 ;;		Unchanged: 0/0
  5456 ;; Data sizes:     COMRAM   BANK0   BANK1   BANK2   BANK3   BANK4   BANK5   BANK6   BANK7   BANK8   BANK9  BANK10  BANK1
      +1  BANK12  BANK13  BANK14  BANK15
  5457 ;;      Params:         2       0       0       0       0       0       0       0       0       0       0       0       
      +0       0       0       0       0
  5458 ;;      Locals:         2       0       0       0       0       0       0       0       0       0       0       0       
      +0       0       0       0       0
  5459 ;;      Temps:          1       0       0       0       0       0       0       0       0       0       0       0       
      +0       0       0       0       0
  5460 ;;      Totals:         5       0       0       0       0       0       0       0       0       0       0       0       
      +0       0       0       0       0
  5461 ;;Total ram usage:        5 bytes
  5462 ;; Hardware stack levels used: 1
  5463 ;; Hardware stack levels required when called: 1
  5464 ;; This function calls:
  5465 ;;		_gpio_pin_write_logic
  5466 ;; This function is called by:
  5467 ;;		_open_the_safe_program
  5468 ;;		_set_password
  5469 ;;		_set_passowrd_frist_time
  5470 ;; This function uses a non-reentrant model
  5471 ;;
  5472                           
  5473                           	psect	text25
  5474   00E79E                     __ptext25:
  5475                           	callstack 0
  5476   00E79E                     _Led_turn_off:
  5477                           	callstack 28
  5478   00E79E                     
  5479                           ;ECU_Layer/ecu_led/ecu_led.c: 61:     if (((void*)0) == led )
  5480   00E79E  500B               	movf	Led_turn_off@led^0,w,c
  5481   00E7A0  100C               	iorwf	(Led_turn_off@led+1)^0,w,c
  5482   00E7A2  A4D8               	btfss	status,2,c
  5483   00E7A4  EFD6  F073         	goto	u1851
  5484   00E7A8  EFD8  F073         	goto	u1850
  5485   00E7AC                     u1851:
  5486   00E7AC  EFDC  F073         	goto	l315
  5487   00E7B0                     u1850:
  5488   00E7B0                     
  5489                           ;ECU_Layer/ecu_led/ecu_led.c: 62:     {;ECU_Layer/ecu_led/ecu_led.c: 63:         ret = (
      +                          STD_ReturnType)0x00;
  5490   00E7B0  0E00               	movlw	0
  5491   00E7B2  6E0E               	movwf	Led_turn_off@ret^0,c
  5492                           
  5493                           ;ECU_Layer/ecu_led/ecu_led.c: 64:     }
  5494   00E7B4  EF0E  F074         	goto	l3440
  5495   00E7B8                     l315:
  5496                           
  5497                           ;ECU_Layer/ecu_led/ecu_led.c: 66:     {;ECU_Layer/ecu_led/ecu_led.c: 67:         Pin_con
      +                          fig_t Pin_config={
  5498   00E7B8  C058  F00F         	movff	Led_turn_off@F3307,Led_turn_off@Pin_config
  5499   00E7BC  C00B  FFD9         	movff	Led_turn_off@led,fsr2l
  5500   00E7C0  C00C  FFDA         	movff	Led_turn_off@led+1,fsr2h
  5501   00E7C4  50DF               	movf	223,w,c
  5502   00E7C6  0B07               	andlw	7
  5503   00E7C8  6E0D               	movwf	??_Led_turn_off^0,c
  5504   00E7CA  500F               	movf	Led_turn_off@Pin_config^0,w,c
  5505   00E7CC  180D               	xorwf	??_Led_turn_off^0,w,c
  5506   00E7CE  0BF8               	andlw	-8
  5507   00E7D0  180D               	xorwf	??_Led_turn_off^0,w,c
  5508   00E7D2  6E0F               	movwf	Led_turn_off@Pin_config^0,c
  5509   00E7D4  C00B  FFD9         	movff	Led_turn_off@led,fsr2l
  5510   00E7D8  C00C  FFDA         	movff	Led_turn_off@led+1,fsr2h
  5511   00E7DC  30DF               	rrcf	223,w,c
  5512   00E7DE  32E8               	rrcf	wreg,f,c
  5513   00E7E0  32E8               	rrcf	wreg,f,c
  5514   00E7E2  0B07               	andlw	7
  5515   00E7E4  6E0D               	movwf	??_Led_turn_off^0,c
  5516   00E7E6  460D               	rlncf	??_Led_turn_off^0,f,c
  5517   00E7E8  460D               	rlncf	??_Led_turn_off^0,f,c
  5518   00E7EA  460D               	rlncf	??_Led_turn_off^0,f,c
  5519   00E7EC  500F               	movf	Led_turn_off@Pin_config^0,w,c
  5520   00E7EE  180D               	xorwf	??_Led_turn_off^0,w,c
  5521   00E7F0  0BC7               	andlw	-57
  5522   00E7F2  180D               	xorwf	??_Led_turn_off^0,w,c
  5523   00E7F4  6E0F               	movwf	Led_turn_off@Pin_config^0,c
  5524   00E7F6  C00B  FFD9         	movff	Led_turn_off@led,fsr2l
  5525   00E7FA  C00C  FFDA         	movff	Led_turn_off@led+1,fsr2h
  5526   00E7FE  ACDF               	btfss	indf2,6,c
  5527   00E800  D002               	bra	u1865
  5528   00E802  8C0F               	bsf	Led_turn_off@Pin_config^0,6,c
  5529   00E804  D001               	bra	u1867
  5530   00E806                     u1865:
  5531   00E806  9C0F               	bcf	Led_turn_off@Pin_config^0,6,c
  5532   00E808                     u1867:
  5533   00E808  9E0F               	bcf	Led_turn_off@Pin_config^0,7,c
  5534   00E80A                     
  5535                           ;ECU_Layer/ecu_led/ecu_led.c: 73:         ret = gpio_pin_write_logic(&Pin_config,GPIO_lo
      +                          w);
  5536   00E80A  0E0F               	movlw	low Led_turn_off@Pin_config
  5537   00E80C  6E01               	movwf	gpio_pin_write_logic@Pin_config^0,c
  5538   00E80E  0E00               	movlw	high Led_turn_off@Pin_config
  5539   00E810  6E02               	movwf	(gpio_pin_write_logic@Pin_config+1)^0,c
  5540   00E812  0E00               	movlw	0
  5541   00E814  6E03               	movwf	gpio_pin_write_logic@logic^0,c
  5542   00E816  EC38  F077         	call	_gpio_pin_write_logic	;wreg free
  5543   00E81A  6E0E               	movwf	Led_turn_off@ret^0,c
  5544   00E81C                     l3440:
  5545                           
  5546                           ;ECU_Layer/ecu_led/ecu_led.c: 75:     return ret;
  5547   00E81C  500E               	movf	Led_turn_off@ret^0,w,c
  5548   00E81E  0012               	return		;funcret
  5549   00E820                     __end_of_Led_turn_off:
  5550                           	callstack 0
  5551                           
  5552 ;; *************** function _app_initialize *****************
  5553 ;; Defined at:
  5554 ;;		line 66 in file "App.c"
  5555 ;; Parameters:    Size  Location     Type
  5556 ;;		None
  5557 ;; Auto vars:     Size  Location     Type
  5558 ;;  ret             1    0        unsigned char 
  5559 ;; Return value:  Size  Location     Type
  5560 ;;                  1    wreg      unsigned char 
  5561 ;; Registers used:
  5562 ;;		wreg, fsr2l, fsr2h, status,2, status,0, prodl, prodh, cstack
  5563 ;; Tracked objects:
  5564 ;;		On entry : 0/0
  5565 ;;		On exit  : 0/0
  5566 ;;		Unchanged: 0/0
  5567 ;; Data sizes:     COMRAM   BANK0   BANK1   BANK2   BANK3   BANK4   BANK5   BANK6   BANK7   BANK8   BANK9  BANK10  BANK1
      +1  BANK12  BANK13  BANK14  BANK15
  5568 ;;      Params:         0       0       0       0       0       0       0       0       0       0       0       0       
      +0       0       0       0       0
  5569 ;;      Locals:         0       0       0       0       0       0       0       0       0       0       0       0       
      +0       0       0       0       0
  5570 ;;      Temps:          0       0       0       0       0       0       0       0       0       0       0       0       
      +0       0       0       0       0
  5571 ;;      Totals:         0       0       0       0       0       0       0       0       0       0       0       0       
      +0       0       0       0       0
  5572 ;;Total ram usage:        0 bytes
  5573 ;; Hardware stack levels used: 1
  5574 ;; Hardware stack levels required when called: 5
  5575 ;; This function calls:
  5576 ;;		_ecu_layer_initialize
  5577 ;; This function is called by:
  5578 ;;		_main
  5579 ;; This function uses a non-reentrant model
  5580 ;;
  5581                           
  5582                           	psect	text26
  5583   00E12C                     __ptext26:
  5584                           	callstack 0
  5585   00E12C                     _app_initialize:
  5586                           	callstack 25
  5587   00E12C  ECE5  F071         	call	_ecu_layer_initialize	;wreg free
  5588   00E130  0012               	return		;funcret
  5589   00E132                     __end_of_app_initialize:
  5590                           	callstack 0
  5591                           
  5592 ;; *************** function _ecu_layer_initialize *****************
  5593 ;; Defined at:
  5594 ;;		line 111 in file "ECU_Layer/ecu_initialize.c"
  5595 ;; Parameters:    Size  Location     Type
  5596 ;;		None
  5597 ;; Auto vars:     Size  Location     Type
  5598 ;;  ret             1   29[COMRAM] unsigned char 
  5599 ;; Return value:  Size  Location     Type
  5600 ;;                  1    wreg      unsigned char 
  5601 ;; Registers used:
  5602 ;;		wreg, fsr2l, fsr2h, status,2, status,0, prodl, prodh, cstack
  5603 ;; Tracked objects:
  5604 ;;		On entry : 0/0
  5605 ;;		On exit  : 0/0
  5606 ;;		Unchanged: 0/0
  5607 ;; Data sizes:     COMRAM   BANK0   BANK1   BANK2   BANK3   BANK4   BANK5   BANK6   BANK7   BANK8   BANK9  BANK10  BANK1
      +1  BANK12  BANK13  BANK14  BANK15
  5608 ;;      Params:         0       0       0       0       0       0       0       0       0       0       0       0       
      +0       0       0       0       0
  5609 ;;      Locals:         1       0       0       0       0       0       0       0       0       0       0       0       
      +0       0       0       0       0
  5610 ;;      Temps:          0       0       0       0       0       0       0       0       0       0       0       0       
      +0       0       0       0       0
  5611 ;;      Totals:         1       0       0       0       0       0       0       0       0       0       0       0       
      +0       0       0       0       0
  5612 ;;Total ram usage:        1 bytes
  5613 ;; Hardware stack levels used: 1
  5614 ;; Hardware stack levels required when called: 4
  5615 ;; This function calls:
  5616 ;;		_Led_initialaize
  5617 ;;		_buzzer_initialaize
  5618 ;;		_dc_motor_intialize
  5619 ;;		_keypad_initialize
  5620 ;;		_lcd_4bit_initialize
  5621 ;; This function is called by:
  5622 ;;		_app_initialize
  5623 ;; This function uses a non-reentrant model
  5624 ;;
  5625                           
  5626                           	psect	text27
  5627   00E3CA                     __ptext27:
  5628                           	callstack 0
  5629   00E3CA                     _ecu_layer_initialize:
  5630                           	callstack 25
  5631   00E3CA  0E53               	movlw	low _buzzer
  5632   00E3CC  6E0E               	movwf	buzzer_initialaize@buzzer_obj^0,c
  5633   00E3CE  0E00               	movlw	high _buzzer
  5634   00E3D0  6E0F               	movwf	(buzzer_initialaize@buzzer_obj+1)^0,c
  5635   00E3D2  EC90  F073         	call	_buzzer_initialaize	;wreg free
  5636   00E3D6  0E51               	movlw	low _dc_motor
  5637   00E3D8  6E0E               	movwf	dc_motor_intialize@dc_motor^0,c
  5638   00E3DA  0E00               	movlw	high _dc_motor
  5639   00E3DC  6E0F               	movwf	(dc_motor_intialize@dc_motor+1)^0,c
  5640   00E3DE  ECF3  F070         	call	_dc_motor_intialize	;wreg free
  5641   00E3E2  0E4B               	movlw	low _lcd
  5642   00E3E4  6E18               	movwf	lcd_4bit_initialize@lcd^0,c
  5643   00E3E6  0E00               	movlw	high _lcd
  5644   00E3E8  6E19               	movwf	(lcd_4bit_initialize@lcd+1)^0,c
  5645   00E3EA  EC45  F078         	call	_lcd_4bit_initialize	;wreg free
  5646   00E3EE  0E9C               	movlw	low _keypad
  5647   00E3F0  6E0E               	movwf	keypad_initialize@keypad^0,c
  5648   00E3F2  0E00               	movlw	high _keypad
  5649   00E3F4  6E0F               	movwf	(keypad_initialize@keypad+1)^0,c
  5650   00E3F6  EC15  F073         	call	_keypad_initialize	;wreg free
  5651   00E3FA  0E55               	movlw	low _green_led
  5652   00E3FC  6E0E               	movwf	Led_initialaize@led^0,c
  5653   00E3FE  0E00               	movlw	high _green_led
  5654   00E400  6E0F               	movwf	(Led_initialaize@led+1)^0,c
  5655   00E402  EC51  F073         	call	_Led_initialaize	;wreg free
  5656   00E406                     
  5657                           ;ECU_Layer/ecu_initialize.c: 120:     ret = Led_initialaize(&red_led);
  5658   00E406  0E54               	movlw	low _red_led
  5659   00E408  6E0E               	movwf	Led_initialaize@led^0,c
  5660   00E40A  0E00               	movlw	high _red_led
  5661   00E40C  6E0F               	movwf	(Led_initialaize@led+1)^0,c
  5662   00E40E  EC51  F073         	call	_Led_initialaize	;wreg free
  5663   00E412  6E1E               	movwf	ecu_layer_initialize@ret^0,c
  5664                           
  5665                           ;ECU_Layer/ecu_initialize.c: 122:     return ret;
  5666   00E414  501E               	movf	ecu_layer_initialize@ret^0,w,c
  5667   00E416  0012               	return		;funcret
  5668   00E418                     __end_of_ecu_layer_initialize:
  5669                           	callstack 0
  5670                           
  5671 ;; *************** function _lcd_4bit_initialize *****************
  5672 ;; Defined at:
  5673 ;;		line 10 in file "ECU_Layer/ecu_lcd/ecu_lcd.c"
  5674 ;; Parameters:    Size  Location     Type
  5675 ;;  lcd             2   23[COMRAM] PTR const struct .
  5676 ;;		 -> lcd(6), 
  5677 ;; Auto vars:     Size  Location     Type
  5678 ;;  l_pin_counte    1   27[COMRAM] unsigned char 
  5679 ;;  ret             1   28[COMRAM] unsigned char 
  5680 ;; Return value:  Size  Location     Type
  5681 ;;                  1    wreg      unsigned char 
  5682 ;; Registers used:
  5683 ;;		wreg, fsr2l, fsr2h, status,2, status,0, prodl, prodh, cstack
  5684 ;; Tracked objects:
  5685 ;;		On entry : 0/0
  5686 ;;		On exit  : 0/0
  5687 ;;		Unchanged: 0/0
  5688 ;; Data sizes:     COMRAM   BANK0   BANK1   BANK2   BANK3   BANK4   BANK5   BANK6   BANK7   BANK8   BANK9  BANK10  BANK1
      +1  BANK12  BANK13  BANK14  BANK15
  5689 ;;      Params:         2       0       0       0       0       0       0       0       0       0       0       0       
      +0       0       0       0       0
  5690 ;;      Locals:         2       0       0       0       0       0       0       0       0       0       0       0       
      +0       0       0       0       0
  5691 ;;      Temps:          2       0       0       0       0       0       0       0       0       0       0       0       
      +0       0       0       0       0
  5692 ;;      Totals:         6       0       0       0       0       0       0       0       0       0       0       0       
      +0       0       0       0       0
  5693 ;;Total ram usage:        6 bytes
  5694 ;; Hardware stack levels used: 1
  5695 ;; Hardware stack levels required when called: 3
  5696 ;; This function calls:
  5697 ;;		_gpio_pin_initialize
  5698 ;;		_lcd_4bit_send_cmd
  5699 ;; This function is called by:
  5700 ;;		_ecu_layer_initialize
  5701 ;; This function uses a non-reentrant model
  5702 ;;
  5703                           
  5704                           	psect	text28
  5705   00F08A                     __ptext28:
  5706                           	callstack 0
  5707   00F08A                     _lcd_4bit_initialize:
  5708                           	callstack 25
  5709   00F08A                     
  5710                           ;ECU_Layer/ecu_lcd/ecu_lcd.c: 14:     if (((void*)0) == lcd )
  5711   00F08A  5018               	movf	lcd_4bit_initialize@lcd^0,w,c
  5712   00F08C  1019               	iorwf	(lcd_4bit_initialize@lcd+1)^0,w,c
  5713   00F08E  A4D8               	btfss	status,2,c
  5714   00F090  EF4C  F078         	goto	u1791
  5715   00F094  EF4E  F078         	goto	u1790
  5716   00F098                     u1791:
  5717   00F098  EF52  F078         	goto	l3350
  5718   00F09C                     u1790:
  5719   00F09C                     
  5720                           ;ECU_Layer/ecu_lcd/ecu_lcd.c: 15:     {;ECU_Layer/ecu_lcd/ecu_lcd.c: 16:         ret = (
      +                          STD_ReturnType)0x00;
  5721   00F09C  0E00               	movlw	0
  5722   00F09E  6E1D               	movwf	lcd_4bit_initialize@ret^0,c
  5723                           
  5724                           ;ECU_Layer/ecu_lcd/ecu_lcd.c: 17:     }
  5725   00F0A0  EFCD  F078         	goto	l3386
  5726   00F0A4                     l3350:
  5727   00F0A4  C018  F00B         	movff	lcd_4bit_initialize@lcd,gpio_pin_initialize@Pin_config
  5728   00F0A8  C019  F00C         	movff	lcd_4bit_initialize@lcd+1,gpio_pin_initialize@Pin_config+1
  5729   00F0AC  EC12  F071         	call	_gpio_pin_initialize	;wreg free
  5730   00F0B0                     
  5731                           ;ECU_Layer/ecu_lcd/ecu_lcd.c: 22:         ret = gpio_pin_initialize ( &(lcd->lcd_4bit_rs
      +                          ) );
  5732   00F0B0  0E01               	movlw	1
  5733   00F0B2  2418               	addwf	lcd_4bit_initialize@lcd^0,w,c
  5734   00F0B4  6E0B               	movwf	gpio_pin_initialize@Pin_config^0,c
  5735   00F0B6  0E00               	movlw	0
  5736   00F0B8  2019               	addwfc	(lcd_4bit_initialize@lcd+1)^0,w,c
  5737   00F0BA  6E0C               	movwf	(gpio_pin_initialize@Pin_config+1)^0,c
  5738   00F0BC  EC12  F071         	call	_gpio_pin_initialize	;wreg free
  5739   00F0C0  6E1D               	movwf	lcd_4bit_initialize@ret^0,c
  5740                           
  5741                           ;ECU_Layer/ecu_lcd/ecu_lcd.c: 23:         for (l_pin_counter = 0 ; l_pin_counter<4 ; l_p
      +                          in_counter++ )
  5742   00F0C2  0E00               	movlw	0
  5743   00F0C4  6E1C               	movwf	lcd_4bit_initialize@l_pin_counter^0,c
  5744   00F0C6                     l3360:
  5745                           
  5746                           ;ECU_Layer/ecu_lcd/ecu_lcd.c: 24:         {;ECU_Layer/ecu_lcd/ecu_lcd.c: 25:            
      +                           ret &= gpio_pin_initialize ( &(lcd->lcd_4bit_data[l_pin_counter]) );
  5747   00F0C6  501C               	movf	lcd_4bit_initialize@l_pin_counter^0,w,c
  5748   00F0C8  2418               	addwf	lcd_4bit_initialize@lcd^0,w,c
  5749   00F0CA  6E1A               	movwf	??_lcd_4bit_initialize^0,c
  5750   00F0CC  0E00               	movlw	0
  5751   00F0CE  2019               	addwfc	(lcd_4bit_initialize@lcd+1)^0,w,c
  5752   00F0D0  6E1B               	movwf	(??_lcd_4bit_initialize+1)^0,c
  5753   00F0D2  0E02               	movlw	2
  5754   00F0D4  241A               	addwf	??_lcd_4bit_initialize^0,w,c
  5755   00F0D6  6E0B               	movwf	gpio_pin_initialize@Pin_config^0,c
  5756   00F0D8  0E00               	movlw	0
  5757   00F0DA  201B               	addwfc	(??_lcd_4bit_initialize+1)^0,w,c
  5758   00F0DC  6E0C               	movwf	(gpio_pin_initialize@Pin_config+1)^0,c
  5759   00F0DE  EC12  F071         	call	_gpio_pin_initialize	;wreg free
  5760   00F0E2  161D               	andwf	lcd_4bit_initialize@ret^0,f,c
  5761   00F0E4                     
  5762                           ;ECU_Layer/ecu_lcd/ecu_lcd.c: 26:         }
  5763   00F0E4  2A1C               	incf	lcd_4bit_initialize@l_pin_counter^0,f,c
  5764   00F0E6  0E03               	movlw	3
  5765   00F0E8  641C               	cpfsgt	lcd_4bit_initialize@l_pin_counter^0,c
  5766   00F0EA  EF79  F078         	goto	u1801
  5767   00F0EE  EF7B  F078         	goto	u1800
  5768   00F0F2                     u1801:
  5769   00F0F2  EF63  F078         	goto	l3360
  5770   00F0F6                     u1800:
  5771   00F0F6                     
  5772                           ;ECU_Layer/ecu_lcd/ecu_lcd.c: 28:         _delay((unsigned long)((20)*(8000000/4000.0)))
      +                          ;
  5773   00F0F6  0E34               	movlw	52
  5774   00F0F8  6E1A               	movwf	??_lcd_4bit_initialize^0,c
  5775   00F0FA  0EF2               	movlw	242
  5776   00F0FC                     u2937:
  5777   00F0FC  2EE8               	decfsz	wreg,f,c
  5778   00F0FE  D7FE               	bra	u2937
  5779   00F100  2E1A               	decfsz	??_lcd_4bit_initialize^0,f,c
  5780   00F102  D7FC               	bra	u2937
  5781   00F104  C018  F014         	movff	lcd_4bit_initialize@lcd,lcd_4bit_send_cmd@lcd
  5782   00F108  C019  F015         	movff	lcd_4bit_initialize@lcd+1,lcd_4bit_send_cmd@lcd+1
  5783   00F10C  0E33               	movlw	51
  5784   00F10E  6E16               	movwf	lcd_4bit_send_cmd@cmd^0,c
  5785   00F110  ECDA  F072         	call	_lcd_4bit_send_cmd	;wreg free
  5786   00F114                     
  5787                           ;ECU_Layer/ecu_lcd/ecu_lcd.c: 31:         _delay((unsigned long)((5)*(8000000/4000.0)));
  5788   00F114  0E0D               	movlw	13
  5789   00F116  6E1A               	movwf	??_lcd_4bit_initialize^0,c
  5790   00F118  0EFC               	movlw	252
  5791   00F11A                     u2947:
  5792   00F11A  2EE8               	decfsz	wreg,f,c
  5793   00F11C  D7FE               	bra	u2947
  5794   00F11E  2E1A               	decfsz	??_lcd_4bit_initialize^0,f,c
  5795   00F120  D7FC               	bra	u2947
  5796   00F122  C018  F014         	movff	lcd_4bit_initialize@lcd,lcd_4bit_send_cmd@lcd
  5797   00F126  C019  F015         	movff	lcd_4bit_initialize@lcd+1,lcd_4bit_send_cmd@lcd+1
  5798   00F12A  0E32               	movlw	50
  5799   00F12C  6E16               	movwf	lcd_4bit_send_cmd@cmd^0,c
  5800   00F12E  ECDA  F072         	call	_lcd_4bit_send_cmd	;wreg free
  5801   00F132                     
  5802                           ;ECU_Layer/ecu_lcd/ecu_lcd.c: 34:         _delay((unsigned long)((150)*(8000000/4000000.
      +                          0)));
  5803   00F132  0E64               	movlw	100
  5804   00F134                     u2957:
  5805   00F134  2EE8               	decfsz	wreg,f,c
  5806   00F136  D7FE               	bra	u2957
  5807   00F138  C018  F014         	movff	lcd_4bit_initialize@lcd,lcd_4bit_send_cmd@lcd
  5808   00F13C  C019  F015         	movff	lcd_4bit_initialize@lcd+1,lcd_4bit_send_cmd@lcd+1
  5809   00F140  0E28               	movlw	40
  5810   00F142  6E16               	movwf	lcd_4bit_send_cmd@cmd^0,c
  5811   00F144  ECDA  F072         	call	_lcd_4bit_send_cmd	;wreg free
  5812   00F148  C018  F014         	movff	lcd_4bit_initialize@lcd,lcd_4bit_send_cmd@lcd
  5813   00F14C  C019  F015         	movff	lcd_4bit_initialize@lcd+1,lcd_4bit_send_cmd@lcd+1
  5814   00F150  0E01               	movlw	1
  5815   00F152  6E16               	movwf	lcd_4bit_send_cmd@cmd^0,c
  5816   00F154  ECDA  F072         	call	_lcd_4bit_send_cmd	;wreg free
  5817   00F158  C018  F014         	movff	lcd_4bit_initialize@lcd,lcd_4bit_send_cmd@lcd
  5818   00F15C  C019  F015         	movff	lcd_4bit_initialize@lcd+1,lcd_4bit_send_cmd@lcd+1
  5819   00F160  0E03               	movlw	3
  5820   00F162  6E16               	movwf	lcd_4bit_send_cmd@cmd^0,c
  5821   00F164  ECDA  F072         	call	_lcd_4bit_send_cmd	;wreg free
  5822   00F168  C018  F014         	movff	lcd_4bit_initialize@lcd,lcd_4bit_send_cmd@lcd
  5823   00F16C  C019  F015         	movff	lcd_4bit_initialize@lcd+1,lcd_4bit_send_cmd@lcd+1
  5824   00F170  0E06               	movlw	6
  5825   00F172  6E16               	movwf	lcd_4bit_send_cmd@cmd^0,c
  5826   00F174  ECDA  F072         	call	_lcd_4bit_send_cmd	;wreg free
  5827   00F178  C018  F014         	movff	lcd_4bit_initialize@lcd,lcd_4bit_send_cmd@lcd
  5828   00F17C  C019  F015         	movff	lcd_4bit_initialize@lcd+1,lcd_4bit_send_cmd@lcd+1
  5829   00F180  0E0C               	movlw	12
  5830   00F182  6E16               	movwf	lcd_4bit_send_cmd@cmd^0,c
  5831   00F184  ECDA  F072         	call	_lcd_4bit_send_cmd	;wreg free
  5832   00F188                     
  5833                           ;ECU_Layer/ecu_lcd/ecu_lcd.c: 43:         ret = lcd_4bit_send_cmd (lcd,0b10000000);
  5834   00F188  C018  F014         	movff	lcd_4bit_initialize@lcd,lcd_4bit_send_cmd@lcd
  5835   00F18C  C019  F015         	movff	lcd_4bit_initialize@lcd+1,lcd_4bit_send_cmd@lcd+1
  5836   00F190  0E80               	movlw	128
  5837   00F192  6E16               	movwf	lcd_4bit_send_cmd@cmd^0,c
  5838   00F194  ECDA  F072         	call	_lcd_4bit_send_cmd	;wreg free
  5839   00F198  6E1D               	movwf	lcd_4bit_initialize@ret^0,c
  5840   00F19A                     l3386:
  5841                           
  5842                           ;ECU_Layer/ecu_lcd/ecu_lcd.c: 46:     return ret;
  5843   00F19A  501D               	movf	lcd_4bit_initialize@ret^0,w,c
  5844   00F19C  0012               	return		;funcret
  5845   00F19E                     __end_of_lcd_4bit_initialize:
  5846                           	callstack 0
  5847                           
  5848 ;; *************** function _lcd_4bit_send_cmd *****************
  5849 ;; Defined at:
  5850 ;;		line 49 in file "ECU_Layer/ecu_lcd/ecu_lcd.c"
  5851 ;; Parameters:    Size  Location     Type
  5852 ;;  lcd             2   19[COMRAM] PTR const struct .
  5853 ;;		 -> lcd(6), 
  5854 ;;  cmd             1   21[COMRAM] unsigned char 
  5855 ;; Auto vars:     Size  Location     Type
  5856 ;;  ret             1   22[COMRAM] unsigned char 
  5857 ;; Return value:  Size  Location     Type
  5858 ;;                  1    wreg      unsigned char 
  5859 ;; Registers used:
  5860 ;;		wreg, fsr2l, fsr2h, status,2, status,0, prodl, prodh, cstack
  5861 ;; Tracked objects:
  5862 ;;		On entry : 0/0
  5863 ;;		On exit  : 0/0
  5864 ;;		Unchanged: 0/0
  5865 ;; Data sizes:     COMRAM   BANK0   BANK1   BANK2   BANK3   BANK4   BANK5   BANK6   BANK7   BANK8   BANK9  BANK10  BANK1
      +1  BANK12  BANK13  BANK14  BANK15
  5866 ;;      Params:         3       0       0       0       0       0       0       0       0       0       0       0       
      +0       0       0       0       0
  5867 ;;      Locals:         1       0       0       0       0       0       0       0       0       0       0       0       
      +0       0       0       0       0
  5868 ;;      Temps:          0       0       0       0       0       0       0       0       0       0       0       0       
      +0       0       0       0       0
  5869 ;;      Totals:         4       0       0       0       0       0       0       0       0       0       0       0       
      +0       0       0       0       0
  5870 ;;Total ram usage:        4 bytes
  5871 ;; Hardware stack levels used: 1
  5872 ;; Hardware stack levels required when called: 2
  5873 ;; This function calls:
  5874 ;;		_gpio_pin_write_logic
  5875 ;;		_lcd_4bit_send_enable
  5876 ;;		_lcd_send_4bits
  5877 ;; This function is called by:
  5878 ;;		_lcd_4bit_initialize
  5879 ;;		_lcd_4bit_set_cursor
  5880 ;;		_main
  5881 ;;		_open_the_safe_program
  5882 ;;		_set_password
  5883 ;;		_choose_program
  5884 ;;		_set_passowrd_frist_time
  5885 ;;		_try_again_after_5_sec
  5886 ;;		_lcd_4bit_send_custome_char_data_pos
  5887 ;;		_enter_password_again
  5888 ;; This function uses a non-reentrant model
  5889 ;;
  5890                           
  5891                           	psect	text29
  5892   00E5B4                     __ptext29:
  5893                           	callstack 0
  5894   00E5B4                     _lcd_4bit_send_cmd:
  5895                           	callstack 24
  5896   00E5B4                     
  5897                           ;ECU_Layer/ecu_lcd/ecu_lcd.c: 53:     if (((void*)0) == lcd )
  5898   00E5B4  5014               	movf	lcd_4bit_send_cmd@lcd^0,w,c
  5899   00E5B6  1015               	iorwf	(lcd_4bit_send_cmd@lcd+1)^0,w,c
  5900   00E5B8  A4D8               	btfss	status,2,c
  5901   00E5BA  EFE1  F072         	goto	u1461
  5902   00E5BE  EFE3  F072         	goto	u1460
  5903   00E5C2                     u1461:
  5904   00E5C2  EFE7  F072         	goto	l3014
  5905   00E5C6                     u1460:
  5906   00E5C6                     
  5907                           ;ECU_Layer/ecu_lcd/ecu_lcd.c: 54:     {;ECU_Layer/ecu_lcd/ecu_lcd.c: 55:         ret = (
      +                          STD_ReturnType)0x00;
  5908   00E5C6  0E00               	movlw	0
  5909   00E5C8  6E17               	movwf	lcd_4bit_send_cmd@ret^0,c
  5910                           
  5911                           ;ECU_Layer/ecu_lcd/ecu_lcd.c: 56:     }
  5912   00E5CA  EF13  F073         	goto	l3016
  5913   00E5CE                     l3014:
  5914                           
  5915                           ;ECU_Layer/ecu_lcd/ecu_lcd.c: 58:     {;ECU_Layer/ecu_lcd/ecu_lcd.c: 59:         ret = g
      +                          pio_pin_write_logic ( &(lcd->lcd_4bit_rs) , GPIO_low);
  5916   00E5CE  0E01               	movlw	1
  5917   00E5D0  2414               	addwf	lcd_4bit_send_cmd@lcd^0,w,c
  5918   00E5D2  6E01               	movwf	gpio_pin_write_logic@Pin_config^0,c
  5919   00E5D4  0E00               	movlw	0
  5920   00E5D6  2015               	addwfc	(lcd_4bit_send_cmd@lcd+1)^0,w,c
  5921   00E5D8  6E02               	movwf	(gpio_pin_write_logic@Pin_config+1)^0,c
  5922   00E5DA  0E00               	movlw	0
  5923   00E5DC  6E03               	movwf	gpio_pin_write_logic@logic^0,c
  5924   00E5DE  EC38  F077         	call	_gpio_pin_write_logic	;wreg free
  5925   00E5E2  6E17               	movwf	lcd_4bit_send_cmd@ret^0,c
  5926                           
  5927                           ;ECU_Layer/ecu_lcd/ecu_lcd.c: 61:         ret = lcd_send_4bits (lcd , cmd >> 4 );
  5928   00E5E4  C014  F00B         	movff	lcd_4bit_send_cmd@lcd,lcd_send_4bits@lcd
  5929   00E5E8  C015  F00C         	movff	lcd_4bit_send_cmd@lcd+1,lcd_send_4bits@lcd+1
  5930   00E5EC  3816               	swapf	lcd_4bit_send_cmd@cmd^0,w,c
  5931   00E5EE  0B0F               	andlw	15
  5932   00E5F0  6E0D               	movwf	lcd_send_4bits@value^0,c
  5933   00E5F2  ECA0  F072         	call	_lcd_send_4bits	;wreg free
  5934   00E5F6  6E17               	movwf	lcd_4bit_send_cmd@ret^0,c
  5935                           
  5936                           ;ECU_Layer/ecu_lcd/ecu_lcd.c: 62:         ret = lcd_4bit_send_enable ( lcd );
  5937   00E5F8  C014  F00B         	movff	lcd_4bit_send_cmd@lcd,lcd_4bit_send_enable@lcd
  5938   00E5FC  C015  F00C         	movff	lcd_4bit_send_cmd@lcd+1,lcd_4bit_send_enable@lcd+1
  5939   00E600  EC9C  F071         	call	_lcd_4bit_send_enable	;wreg free
  5940   00E604  6E17               	movwf	lcd_4bit_send_cmd@ret^0,c
  5941                           
  5942                           ;ECU_Layer/ecu_lcd/ecu_lcd.c: 64:         ret = lcd_send_4bits (lcd , cmd );
  5943   00E606  C014  F00B         	movff	lcd_4bit_send_cmd@lcd,lcd_send_4bits@lcd
  5944   00E60A  C015  F00C         	movff	lcd_4bit_send_cmd@lcd+1,lcd_send_4bits@lcd+1
  5945   00E60E  C016  F00D         	movff	lcd_4bit_send_cmd@cmd,lcd_send_4bits@value
  5946   00E612  ECA0  F072         	call	_lcd_send_4bits	;wreg free
  5947   00E616  6E17               	movwf	lcd_4bit_send_cmd@ret^0,c
  5948                           
  5949                           ;ECU_Layer/ecu_lcd/ecu_lcd.c: 65:         ret = lcd_4bit_send_enable (lcd);
  5950   00E618  C014  F00B         	movff	lcd_4bit_send_cmd@lcd,lcd_4bit_send_enable@lcd
  5951   00E61C  C015  F00C         	movff	lcd_4bit_send_cmd@lcd+1,lcd_4bit_send_enable@lcd+1
  5952   00E620  EC9C  F071         	call	_lcd_4bit_send_enable	;wreg free
  5953   00E624  6E17               	movwf	lcd_4bit_send_cmd@ret^0,c
  5954   00E626                     l3016:
  5955                           
  5956                           ;ECU_Layer/ecu_lcd/ecu_lcd.c: 68:     return ret;
  5957   00E626  5017               	movf	lcd_4bit_send_cmd@ret^0,w,c
  5958   00E628  0012               	return		;funcret
  5959   00E62A                     __end_of_lcd_4bit_send_cmd:
  5960                           	callstack 0
  5961                           
  5962 ;; *************** function _lcd_send_4bits *****************
  5963 ;; Defined at:
  5964 ;;		line 447 in file "ECU_Layer/ecu_lcd/ecu_lcd.c"
  5965 ;; Parameters:    Size  Location     Type
  5966 ;;  lcd             2   10[COMRAM] PTR const struct .
  5967 ;;		 -> lcd(6), 
  5968 ;;  value           1   12[COMRAM] unsigned char 
  5969 ;; Auto vars:     Size  Location     Type
  5970 ;;  l_pin_counte    1   18[COMRAM] unsigned char 
  5971 ;;  ret             1   17[COMRAM] unsigned char 
  5972 ;; Return value:  Size  Location     Type
  5973 ;;                  1    wreg      unsigned char 
  5974 ;; Registers used:
  5975 ;;		wreg, fsr2l, fsr2h, status,2, status,0, prodl, prodh, cstack
  5976 ;; Tracked objects:
  5977 ;;		On entry : 0/0
  5978 ;;		On exit  : 0/0
  5979 ;;		Unchanged: 0/0
  5980 ;; Data sizes:     COMRAM   BANK0   BANK1   BANK2   BANK3   BANK4   BANK5   BANK6   BANK7   BANK8   BANK9  BANK10  BANK1
      +1  BANK12  BANK13  BANK14  BANK15
  5981 ;;      Params:         3       0       0       0       0       0       0       0       0       0       0       0       
      +0       0       0       0       0
  5982 ;;      Locals:         2       0       0       0       0       0       0       0       0       0       0       0       
      +0       0       0       0       0
  5983 ;;      Temps:          4       0       0       0       0       0       0       0       0       0       0       0       
      +0       0       0       0       0
  5984 ;;      Totals:         9       0       0       0       0       0       0       0       0       0       0       0       
      +0       0       0       0       0
  5985 ;;Total ram usage:        9 bytes
  5986 ;; Hardware stack levels used: 1
  5987 ;; Hardware stack levels required when called: 1
  5988 ;; This function calls:
  5989 ;;		_gpio_pin_write_logic
  5990 ;; This function is called by:
  5991 ;;		_lcd_4bit_send_cmd
  5992 ;;		_lcd_4bit_send_char_data_pos
  5993 ;;		_lcd_4bit_send_string_data_pos
  5994 ;;		_lcd_4bit_send_char_data
  5995 ;;		_lcd_4bit_send_string_data
  5996 ;; This function uses a non-reentrant model
  5997 ;;
  5998                           
  5999                           	psect	text30
  6000   00E540                     __ptext30:
  6001                           	callstack 0
  6002   00E540                     _lcd_send_4bits:
  6003                           	callstack 26
  6004   00E540                     
  6005                           ;ECU_Layer/ecu_lcd/ecu_lcd.c: 451:     if ( ((void*)0) == lcd )
  6006   00E540  500B               	movf	lcd_send_4bits@lcd^0,w,c
  6007   00E542  100C               	iorwf	(lcd_send_4bits@lcd+1)^0,w,c
  6008   00E544  A4D8               	btfss	status,2,c
  6009   00E546  EFA7  F072         	goto	u1421
  6010   00E54A  EFA9  F072         	goto	u1420
  6011   00E54E                     u1421:
  6012   00E54E  EFAD  F072         	goto	l2976
  6013   00E552                     u1420:
  6014   00E552                     
  6015                           ;ECU_Layer/ecu_lcd/ecu_lcd.c: 452:     {;ECU_Layer/ecu_lcd/ecu_lcd.c: 453:         ret =
      +                           (STD_ReturnType)0x00;
  6016   00E552  0E00               	movlw	0
  6017   00E554  6E12               	movwf	lcd_send_4bits@ret^0,c
  6018                           
  6019                           ;ECU_Layer/ecu_lcd/ecu_lcd.c: 454:     }
  6020   00E556  EFD8  F072         	goto	l2988
  6021   00E55A                     l2976:
  6022                           
  6023                           ;ECU_Layer/ecu_lcd/ecu_lcd.c: 457:     {;ECU_Layer/ecu_lcd/ecu_lcd.c: 458:         uint8
      +                           l_pin_counter=0;
  6024   00E55A  0E00               	movlw	0
  6025   00E55C  6E13               	movwf	lcd_send_4bits@l_pin_counter^0,c
  6026                           
  6027                           ;ECU_Layer/ecu_lcd/ecu_lcd.c: 459:         for (l_pin_counter = 0 ; l_pin_counter<4 ; l_
      +                          pin_counter++ )
  6028   00E55E  0E00               	movlw	0
  6029   00E560  6E13               	movwf	lcd_send_4bits@l_pin_counter^0,c
  6030   00E562                     l2982:
  6031                           
  6032                           ;ECU_Layer/ecu_lcd/ecu_lcd.c: 460:         {;ECU_Layer/ecu_lcd/ecu_lcd.c: 461:          
      +                             ret = gpio_pin_write_logic (&(lcd->lcd_4bit_data[l_pin_counter]) , (value>>l_pin_coun
      +                          ter)&0x01 );
  6033   00E562  5013               	movf	lcd_send_4bits@l_pin_counter^0,w,c
  6034   00E564  240B               	addwf	lcd_send_4bits@lcd^0,w,c
  6035   00E566  6E0E               	movwf	??_lcd_send_4bits^0,c
  6036   00E568  0E00               	movlw	0
  6037   00E56A  200C               	addwfc	(lcd_send_4bits@lcd+1)^0,w,c
  6038   00E56C  6E0F               	movwf	(??_lcd_send_4bits+1)^0,c
  6039   00E56E  0E02               	movlw	2
  6040   00E570  240E               	addwf	??_lcd_send_4bits^0,w,c
  6041   00E572  6E01               	movwf	gpio_pin_write_logic@Pin_config^0,c
  6042   00E574  0E00               	movlw	0
  6043   00E576  200F               	addwfc	(??_lcd_send_4bits+1)^0,w,c
  6044   00E578  6E02               	movwf	(gpio_pin_write_logic@Pin_config+1)^0,c
  6045   00E57A  C013  F010         	movff	lcd_send_4bits@l_pin_counter,??_lcd_send_4bits+2
  6046   00E57E  C00D  F011         	movff	lcd_send_4bits@value,??_lcd_send_4bits+3
  6047   00E582  2A10               	incf	(??_lcd_send_4bits+2)^0,f,c
  6048   00E584  EFC6  F072         	goto	u1434
  6049   00E588                     u1435:
  6050   00E588  90D8               	bcf	status,0,c
  6051   00E58A  3211               	rrcf	(??_lcd_send_4bits+3)^0,f,c
  6052   00E58C                     u1434:
  6053   00E58C  2E10               	decfsz	(??_lcd_send_4bits+2)^0,f,c
  6054   00E58E  EFC4  F072         	goto	u1435
  6055   00E592  5011               	movf	(??_lcd_send_4bits+3)^0,w,c
  6056   00E594  0B01               	andlw	1
  6057   00E596  6E03               	movwf	gpio_pin_write_logic@logic^0,c
  6058   00E598  EC38  F077         	call	_gpio_pin_write_logic	;wreg free
  6059   00E59C  6E12               	movwf	lcd_send_4bits@ret^0,c
  6060   00E59E                     
  6061                           ;ECU_Layer/ecu_lcd/ecu_lcd.c: 462:         }
  6062   00E59E  2A13               	incf	lcd_send_4bits@l_pin_counter^0,f,c
  6063   00E5A0  0E03               	movlw	3
  6064   00E5A2  6413               	cpfsgt	lcd_send_4bits@l_pin_counter^0,c
  6065   00E5A4  EFD6  F072         	goto	u1441
  6066   00E5A8  EFD8  F072         	goto	u1440
  6067   00E5AC                     u1441:
  6068   00E5AC  EFB1  F072         	goto	l2982
  6069   00E5B0                     u1440:
  6070   00E5B0                     l2988:
  6071                           
  6072                           ;ECU_Layer/ecu_lcd/ecu_lcd.c: 464:     return ret;
  6073   00E5B0  5012               	movf	lcd_send_4bits@ret^0,w,c
  6074   00E5B2  0012               	return		;funcret
  6075   00E5B4                     __end_of_lcd_send_4bits:
  6076                           	callstack 0
  6077                           
  6078 ;; *************** function _lcd_4bit_send_enable *****************
  6079 ;; Defined at:
  6080 ;;		line 486 in file "ECU_Layer/ecu_lcd/ecu_lcd.c"
  6081 ;; Parameters:    Size  Location     Type
  6082 ;;  lcd             2   10[COMRAM] PTR const struct .
  6083 ;;		 -> lcd(6), 
  6084 ;; Auto vars:     Size  Location     Type
  6085 ;;  ret             1   12[COMRAM] unsigned char 
  6086 ;; Return value:  Size  Location     Type
  6087 ;;                  1    wreg      unsigned char 
  6088 ;; Registers used:
  6089 ;;		wreg, fsr2l, fsr2h, status,2, status,0, prodl, prodh, cstack
  6090 ;; Tracked objects:
  6091 ;;		On entry : 0/0
  6092 ;;		On exit  : 0/0
  6093 ;;		Unchanged: 0/0
  6094 ;; Data sizes:     COMRAM   BANK0   BANK1   BANK2   BANK3   BANK4   BANK5   BANK6   BANK7   BANK8   BANK9  BANK10  BANK1
      +1  BANK12  BANK13  BANK14  BANK15
  6095 ;;      Params:         2       0       0       0       0       0       0       0       0       0       0       0       
      +0       0       0       0       0
  6096 ;;      Locals:         1       0       0       0       0       0       0       0       0       0       0       0       
      +0       0       0       0       0
  6097 ;;      Temps:          0       0       0       0       0       0       0       0       0       0       0       0       
      +0       0       0       0       0
  6098 ;;      Totals:         3       0       0       0       0       0       0       0       0       0       0       0       
      +0       0       0       0       0
  6099 ;;Total ram usage:        3 bytes
  6100 ;; Hardware stack levels used: 1
  6101 ;; Hardware stack levels required when called: 1
  6102 ;; This function calls:
  6103 ;;		_gpio_pin_write_logic
  6104 ;; This function is called by:
  6105 ;;		_lcd_4bit_send_cmd
  6106 ;;		_lcd_4bit_send_char_data_pos
  6107 ;;		_lcd_4bit_send_string_data_pos
  6108 ;;		_lcd_4bit_send_char_data
  6109 ;;		_lcd_4bit_send_string_data
  6110 ;; This function uses a non-reentrant model
  6111 ;;
  6112                           
  6113                           	psect	text31
  6114   00E338                     __ptext31:
  6115                           	callstack 0
  6116   00E338                     _lcd_4bit_send_enable:
  6117                           	callstack 24
  6118   00E338                     
  6119                           ;ECU_Layer/ecu_lcd/ecu_lcd.c: 490:     if ( ((void*)0) == lcd )
  6120   00E338  500B               	movf	lcd_4bit_send_enable@lcd^0,w,c
  6121   00E33A  100C               	iorwf	(lcd_4bit_send_enable@lcd+1)^0,w,c
  6122   00E33C  A4D8               	btfss	status,2,c
  6123   00E33E  EFA3  F071         	goto	u1451
  6124   00E342  EFA5  F071         	goto	u1450
  6125   00E346                     u1451:
  6126   00E346  EFA9  F071         	goto	l2998
  6127   00E34A                     u1450:
  6128   00E34A                     
  6129                           ;ECU_Layer/ecu_lcd/ecu_lcd.c: 491:     {;ECU_Layer/ecu_lcd/ecu_lcd.c: 492:         ret =
      +                           (STD_ReturnType)0x00;
  6130   00E34A  0E00               	movlw	0
  6131   00E34C  6E0D               	movwf	lcd_4bit_send_enable@ret^0,c
  6132                           
  6133                           ;ECU_Layer/ecu_lcd/ecu_lcd.c: 493:     }
  6134   00E34E  EFBE  F071         	goto	l3004
  6135   00E352                     l2998:
  6136   00E352  C00B  F001         	movff	lcd_4bit_send_enable@lcd,gpio_pin_write_logic@Pin_config
  6137   00E356  C00C  F002         	movff	lcd_4bit_send_enable@lcd+1,gpio_pin_write_logic@Pin_config+1
  6138   00E35A  0E01               	movlw	1
  6139   00E35C  6E03               	movwf	gpio_pin_write_logic@logic^0,c
  6140   00E35E  EC38  F077         	call	_gpio_pin_write_logic	;wreg free
  6141   00E362                     
  6142                           ;ECU_Layer/ecu_lcd/ecu_lcd.c: 499:         _delay((unsigned long)((5)*(8000000/4000000.0
      +                          )));
  6143   00E362  0E03               	movlw	3
  6144   00E364                     u2967:
  6145   00E364  2EE8               	decfsz	wreg,f,c
  6146   00E366  D7FE               	bra	u2967
  6147   00E368  F000               	nop	
  6148   00E36A                     
  6149                           ;ECU_Layer/ecu_lcd/ecu_lcd.c: 500:         ret = gpio_pin_write_logic (&(lcd->lcd_4bit_e
      +                          n) , GPIO_low );
  6150   00E36A  C00B  F001         	movff	lcd_4bit_send_enable@lcd,gpio_pin_write_logic@Pin_config
  6151   00E36E  C00C  F002         	movff	lcd_4bit_send_enable@lcd+1,gpio_pin_write_logic@Pin_config+1
  6152   00E372  0E00               	movlw	0
  6153   00E374  6E03               	movwf	gpio_pin_write_logic@logic^0,c
  6154   00E376  EC38  F077         	call	_gpio_pin_write_logic	;wreg free
  6155   00E37A  6E0D               	movwf	lcd_4bit_send_enable@ret^0,c
  6156   00E37C                     l3004:
  6157                           
  6158                           ;ECU_Layer/ecu_lcd/ecu_lcd.c: 503:     return ret;
  6159   00E37C  500D               	movf	lcd_4bit_send_enable@ret^0,w,c
  6160   00E37E  0012               	return		;funcret
  6161   00E380                     __end_of_lcd_4bit_send_enable:
  6162                           	callstack 0
  6163                           
  6164 ;; *************** function _keypad_initialize *****************
  6165 ;; Defined at:
  6166 ;;		line 12 in file "ECU_Layer/ecu_keypad/ecu_keypad.c"
  6167 ;; Parameters:    Size  Location     Type
  6168 ;;  keypad          2   13[COMRAM] PTR const struct .
  6169 ;;		 -> keypad(8), 
  6170 ;; Auto vars:     Size  Location     Type
  6171 ;;  cols_counter    1   19[COMRAM] unsigned char 
  6172 ;;  rows_counter    1   18[COMRAM] unsigned char 
  6173 ;;  ret             1   17[COMRAM] unsigned char 
  6174 ;; Return value:  Size  Location     Type
  6175 ;;                  1    wreg      unsigned char 
  6176 ;; Registers used:
  6177 ;;		wreg, fsr2l, fsr2h, status,2, status,0, prodl, prodh, cstack
  6178 ;; Tracked objects:
  6179 ;;		On entry : 0/0
  6180 ;;		On exit  : 0/0
  6181 ;;		Unchanged: 0/0
  6182 ;; Data sizes:     COMRAM   BANK0   BANK1   BANK2   BANK3   BANK4   BANK5   BANK6   BANK7   BANK8   BANK9  BANK10  BANK1
      +1  BANK12  BANK13  BANK14  BANK15
  6183 ;;      Params:         2       0       0       0       0       0       0       0       0       0       0       0       
      +0       0       0       0       0
  6184 ;;      Locals:         3       0       0       0       0       0       0       0       0       0       0       0       
      +0       0       0       0       0
  6185 ;;      Temps:          2       0       0       0       0       0       0       0       0       0       0       0       
      +0       0       0       0       0
  6186 ;;      Totals:         7       0       0       0       0       0       0       0       0       0       0       0       
      +0       0       0       0       0
  6187 ;;Total ram usage:        7 bytes
  6188 ;; Hardware stack levels used: 1
  6189 ;; Hardware stack levels required when called: 2
  6190 ;; This function calls:
  6191 ;;		_gpio_pin_initialize
  6192 ;; This function is called by:
  6193 ;;		_ecu_layer_initialize
  6194 ;; This function uses a non-reentrant model
  6195 ;;
  6196                           
  6197                           	psect	text32
  6198   00E62A                     __ptext32:
  6199                           	callstack 0
  6200   00E62A                     _keypad_initialize:
  6201                           	callstack 26
  6202   00E62A                     
  6203                           ;ECU_Layer/ecu_keypad/ecu_keypad.c: 16:     if (((void*)0) == keypad )
  6204   00E62A  500E               	movf	keypad_initialize@keypad^0,w,c
  6205   00E62C  100F               	iorwf	(keypad_initialize@keypad+1)^0,w,c
  6206   00E62E  A4D8               	btfss	status,2,c
  6207   00E630  EF1C  F073         	goto	u1761
  6208   00E634  EF1E  F073         	goto	u1760
  6209   00E638                     u1761:
  6210   00E638  EF22  F073         	goto	l3316
  6211   00E63C                     u1760:
  6212   00E63C                     
  6213                           ;ECU_Layer/ecu_keypad/ecu_keypad.c: 17:     {;ECU_Layer/ecu_keypad/ecu_keypad.c: 18:    
      +                               ret = (STD_ReturnType)0x00;
  6214   00E63C  0E00               	movlw	0
  6215   00E63E  6E12               	movwf	keypad_initialize@ret^0,c
  6216                           
  6217                           ;ECU_Layer/ecu_keypad/ecu_keypad.c: 19:     }
  6218   00E640  EF4F  F073         	goto	l3340
  6219   00E644                     l3316:
  6220                           
  6221                           ;ECU_Layer/ecu_keypad/ecu_keypad.c: 21:     {;ECU_Layer/ecu_keypad/ecu_keypad.c: 22:    
      +                               for (uint8 rows_counter = 0 ; rows_counter<4 ; rows_counter++ )
  6222   00E644  0E00               	movlw	0
  6223   00E646  6E13               	movwf	keypad_initialize@rows_counter^0,c
  6224   00E648                     l3322:
  6225   00E648  5013               	movf	keypad_initialize@rows_counter^0,w,c
  6226   00E64A  240E               	addwf	keypad_initialize@keypad^0,w,c
  6227   00E64C  6E0B               	movwf	gpio_pin_initialize@Pin_config^0,c
  6228   00E64E  0E00               	movlw	0
  6229   00E650  200F               	addwfc	(keypad_initialize@keypad+1)^0,w,c
  6230   00E652  6E0C               	movwf	(gpio_pin_initialize@Pin_config+1)^0,c
  6231   00E654  EC12  F071         	call	_gpio_pin_initialize	;wreg free
  6232   00E658                     
  6233                           ;ECU_Layer/ecu_keypad/ecu_keypad.c: 25:         }
  6234   00E658  2A13               	incf	keypad_initialize@rows_counter^0,f,c
  6235   00E65A  0E03               	movlw	3
  6236   00E65C  6413               	cpfsgt	keypad_initialize@rows_counter^0,c
  6237   00E65E  EF33  F073         	goto	u1771
  6238   00E662  EF35  F073         	goto	u1770
  6239   00E666                     u1771:
  6240   00E666  EF24  F073         	goto	l3322
  6241   00E66A                     u1770:
  6242   00E66A                     
  6243                           ;ECU_Layer/ecu_keypad/ecu_keypad.c: 27:         for (uint8 cols_counter = 0 ; cols_count
      +                          er<4 ; cols_counter++ )
  6244   00E66A  0E00               	movlw	0
  6245   00E66C  6E14               	movwf	keypad_initialize@cols_counter^0,c
  6246   00E66E                     l3334:
  6247                           
  6248                           ;ECU_Layer/ecu_keypad/ecu_keypad.c: 28:         {;ECU_Layer/ecu_keypad/ecu_keypad.c: 29:
      +                                       ret = gpio_pin_initialize(&(keypad->keypad_cols_pins[cols_counter]));
  6249   00E66E  5014               	movf	keypad_initialize@cols_counter^0,w,c
  6250   00E670  240E               	addwf	keypad_initialize@keypad^0,w,c
  6251   00E672  6E10               	movwf	??_keypad_initialize^0,c
  6252   00E674  0E00               	movlw	0
  6253   00E676  200F               	addwfc	(keypad_initialize@keypad+1)^0,w,c
  6254   00E678  6E11               	movwf	(??_keypad_initialize+1)^0,c
  6255   00E67A  0E04               	movlw	4
  6256   00E67C  2410               	addwf	??_keypad_initialize^0,w,c
  6257   00E67E  6E0B               	movwf	gpio_pin_initialize@Pin_config^0,c
  6258   00E680  0E00               	movlw	0
  6259   00E682  2011               	addwfc	(??_keypad_initialize+1)^0,w,c
  6260   00E684  6E0C               	movwf	(gpio_pin_initialize@Pin_config+1)^0,c
  6261   00E686  EC12  F071         	call	_gpio_pin_initialize	;wreg free
  6262   00E68A  6E12               	movwf	keypad_initialize@ret^0,c
  6263   00E68C                     
  6264                           ;ECU_Layer/ecu_keypad/ecu_keypad.c: 30:         }
  6265   00E68C  2A14               	incf	keypad_initialize@cols_counter^0,f,c
  6266   00E68E  0E03               	movlw	3
  6267   00E690  6414               	cpfsgt	keypad_initialize@cols_counter^0,c
  6268   00E692  EF4D  F073         	goto	u1781
  6269   00E696  EF4F  F073         	goto	u1780
  6270   00E69A                     u1781:
  6271   00E69A  EF37  F073         	goto	l3334
  6272   00E69E                     u1780:
  6273   00E69E                     l3340:
  6274                           
  6275                           ;ECU_Layer/ecu_keypad/ecu_keypad.c: 32:     return ret;
  6276   00E69E  5012               	movf	keypad_initialize@ret^0,w,c
  6277   00E6A0  0012               	return		;funcret
  6278   00E6A2                     __end_of_keypad_initialize:
  6279                           	callstack 0
  6280                           
  6281 ;; *************** function _dc_motor_intialize *****************
  6282 ;; Defined at:
  6283 ;;		line 5 in file "ECU_Layer/ecu_dc_motor/ecu_dc_motor.c"
  6284 ;; Parameters:    Size  Location     Type
  6285 ;;  dc_motor        2   13[COMRAM] PTR const struct .
  6286 ;;		 -> dc_motor(2), 
  6287 ;; Auto vars:     Size  Location     Type
  6288 ;;  ret             1   15[COMRAM] unsigned char 
  6289 ;; Return value:  Size  Location     Type
  6290 ;;                  1    wreg      unsigned char 
  6291 ;; Registers used:
  6292 ;;		wreg, fsr2l, fsr2h, status,2, status,0, prodl, prodh, cstack
  6293 ;; Tracked objects:
  6294 ;;		On entry : 0/0
  6295 ;;		On exit  : 0/0
  6296 ;;		Unchanged: 0/0
  6297 ;; Data sizes:     COMRAM   BANK0   BANK1   BANK2   BANK3   BANK4   BANK5   BANK6   BANK7   BANK8   BANK9  BANK10  BANK1
      +1  BANK12  BANK13  BANK14  BANK15
  6298 ;;      Params:         2       0       0       0       0       0       0       0       0       0       0       0       
      +0       0       0       0       0
  6299 ;;      Locals:         1       0       0       0       0       0       0       0       0       0       0       0       
      +0       0       0       0       0
  6300 ;;      Temps:          0       0       0       0       0       0       0       0       0       0       0       0       
      +0       0       0       0       0
  6301 ;;      Totals:         3       0       0       0       0       0       0       0       0       0       0       0       
      +0       0       0       0       0
  6302 ;;Total ram usage:        3 bytes
  6303 ;; Hardware stack levels used: 1
  6304 ;; Hardware stack levels required when called: 2
  6305 ;; This function calls:
  6306 ;;		_gpio_pin_initialize
  6307 ;; This function is called by:
  6308 ;;		_ecu_layer_initialize
  6309 ;; This function uses a non-reentrant model
  6310 ;;
  6311                           
  6312                           	psect	text33
  6313   00E1E6                     __ptext33:
  6314                           	callstack 0
  6315   00E1E6                     _dc_motor_intialize:
  6316                           	callstack 26
  6317   00E1E6                     
  6318                           ;ECU_Layer/ecu_dc_motor/ecu_dc_motor.c: 9:     if (((void*)0) == dc_motor )
  6319   00E1E6  500E               	movf	dc_motor_intialize@dc_motor^0,w,c
  6320   00E1E8  100F               	iorwf	(dc_motor_intialize@dc_motor+1)^0,w,c
  6321   00E1EA  A4D8               	btfss	status,2,c
  6322   00E1EC  EFFA  F070         	goto	u1751
  6323   00E1F0  EFFC  F070         	goto	u1750
  6324   00E1F4                     u1751:
  6325   00E1F4  EF00  F071         	goto	l3304
  6326   00E1F8                     u1750:
  6327   00E1F8                     
  6328                           ;ECU_Layer/ecu_dc_motor/ecu_dc_motor.c: 10:     {;ECU_Layer/ecu_dc_motor/ecu_dc_motor.c:
      +                           11:         ret = (STD_ReturnType)0x00;
  6329   00E1F8  0E00               	movlw	0
  6330   00E1FA  6E10               	movwf	dc_motor_intialize@ret^0,c
  6331                           
  6332                           ;ECU_Layer/ecu_dc_motor/ecu_dc_motor.c: 12:     }
  6333   00E1FC  EF10  F071         	goto	l3306
  6334   00E200                     l3304:
  6335                           
  6336                           ;ECU_Layer/ecu_dc_motor/ecu_dc_motor.c: 14:     {;ECU_Layer/ecu_dc_motor/ecu_dc_motor.c:
      +                           15:         ret = gpio_pin_initialize(&(dc_motor->dc_motor_pin[0]));
  6337   00E200  C00E  F00B         	movff	dc_motor_intialize@dc_motor,gpio_pin_initialize@Pin_config
  6338   00E204  C00F  F00C         	movff	dc_motor_intialize@dc_motor+1,gpio_pin_initialize@Pin_config+1
  6339   00E208  EC12  F071         	call	_gpio_pin_initialize	;wreg free
  6340   00E20C  6E10               	movwf	dc_motor_intialize@ret^0,c
  6341                           
  6342                           ;ECU_Layer/ecu_dc_motor/ecu_dc_motor.c: 16:         ret = gpio_pin_initialize(&(dc_motor
      +                          ->dc_motor_pin[1]));
  6343   00E20E  0E01               	movlw	1
  6344   00E210  240E               	addwf	dc_motor_intialize@dc_motor^0,w,c
  6345   00E212  6E0B               	movwf	gpio_pin_initialize@Pin_config^0,c
  6346   00E214  0E00               	movlw	0
  6347   00E216  200F               	addwfc	(dc_motor_intialize@dc_motor+1)^0,w,c
  6348   00E218  6E0C               	movwf	(gpio_pin_initialize@Pin_config+1)^0,c
  6349   00E21A  EC12  F071         	call	_gpio_pin_initialize	;wreg free
  6350   00E21E  6E10               	movwf	dc_motor_intialize@ret^0,c
  6351   00E220                     l3306:
  6352                           
  6353                           ;ECU_Layer/ecu_dc_motor/ecu_dc_motor.c: 18:     return ret;
  6354   00E220  5010               	movf	dc_motor_intialize@ret^0,w,c
  6355   00E222  0012               	return		;funcret
  6356   00E224                     __end_of_dc_motor_intialize:
  6357                           	callstack 0
  6358                           
  6359 ;; *************** function _buzzer_initialaize *****************
  6360 ;; Defined at:
  6361 ;;		line 8 in file "ECU_Layer/ecu_buzzer/ecu_buzzer.c"
  6362 ;; Parameters:    Size  Location     Type
  6363 ;;  buzzer_obj      2   13[COMRAM] PTR const struct .
  6364 ;;		 -> buzzer(1), 
  6365 ;; Auto vars:     Size  Location     Type
  6366 ;;  Pin_config      1   17[COMRAM] struct .
  6367 ;;  ret             1   16[COMRAM] unsigned char 
  6368 ;; Return value:  Size  Location     Type
  6369 ;;                  1    wreg      unsigned char 
  6370 ;; Registers used:
  6371 ;;		wreg, fsr2l, fsr2h, status,2, status,0, prodl, prodh, cstack
  6372 ;; Tracked objects:
  6373 ;;		On entry : 0/0
  6374 ;;		On exit  : 0/0
  6375 ;;		Unchanged: 0/0
  6376 ;; Data sizes:     COMRAM   BANK0   BANK1   BANK2   BANK3   BANK4   BANK5   BANK6   BANK7   BANK8   BANK9  BANK10  BANK1
      +1  BANK12  BANK13  BANK14  BANK15
  6377 ;;      Params:         2       0       0       0       0       0       0       0       0       0       0       0       
      +0       0       0       0       0
  6378 ;;      Locals:         2       0       0       0       0       0       0       0       0       0       0       0       
      +0       0       0       0       0
  6379 ;;      Temps:          1       0       0       0       0       0       0       0       0       0       0       0       
      +0       0       0       0       0
  6380 ;;      Totals:         5       0       0       0       0       0       0       0       0       0       0       0       
      +0       0       0       0       0
  6381 ;;Total ram usage:        5 bytes
  6382 ;; Hardware stack levels used: 1
  6383 ;; Hardware stack levels required when called: 2
  6384 ;; This function calls:
  6385 ;;		_gpio_pin_initialize
  6386 ;; This function is called by:
  6387 ;;		_ecu_layer_initialize
  6388 ;; This function uses a non-reentrant model
  6389 ;;
  6390                           
  6391                           	psect	text34
  6392   00E720                     __ptext34:
  6393                           	callstack 0
  6394   00E720                     _buzzer_initialaize:
  6395                           	callstack 26
  6396   00E720                     
  6397                           ;ECU_Layer/ecu_buzzer/ecu_buzzer.c: 12:     if (((void*)0) == buzzer_obj )
  6398   00E720  500E               	movf	buzzer_initialaize@buzzer_obj^0,w,c
  6399   00E722  100F               	iorwf	(buzzer_initialaize@buzzer_obj+1)^0,w,c
  6400   00E724  A4D8               	btfss	status,2,c
  6401   00E726  EF97  F073         	goto	u1691
  6402   00E72A  EF99  F073         	goto	u1690
  6403   00E72E                     u1691:
  6404   00E72E  EF9D  F073         	goto	l31
  6405   00E732                     u1690:
  6406   00E732                     
  6407                           ;ECU_Layer/ecu_buzzer/ecu_buzzer.c: 13:     {;ECU_Layer/ecu_buzzer/ecu_buzzer.c: 14:    
      +                               ret = (STD_ReturnType)0x00;
  6408   00E732  0E00               	movlw	0
  6409   00E734  6E11               	movwf	buzzer_initialaize@ret^0,c
  6410                           
  6411                           ;ECU_Layer/ecu_buzzer/ecu_buzzer.c: 15:     }
  6412   00E736  EFCD  F073         	goto	l3258
  6413   00E73A                     l31:
  6414                           
  6415                           ;ECU_Layer/ecu_buzzer/ecu_buzzer.c: 17:     {;ECU_Layer/ecu_buzzer/ecu_buzzer.c: 18:    
      +                               Pin_config_t Pin_config={
  6416   00E73A  C05E  F012         	movff	buzzer_initialaize@F3297,buzzer_initialaize@Pin_config
  6417   00E73E  C00E  FFD9         	movff	buzzer_initialaize@buzzer_obj,fsr2l
  6418   00E742  C00F  FFDA         	movff	buzzer_initialaize@buzzer_obj+1,fsr2h
  6419   00E746  50DF               	movf	223,w,c
  6420   00E748  0B07               	andlw	7
  6421   00E74A  6E10               	movwf	??_buzzer_initialaize^0,c
  6422   00E74C  5012               	movf	buzzer_initialaize@Pin_config^0,w,c
  6423   00E74E  1810               	xorwf	??_buzzer_initialaize^0,w,c
  6424   00E750  0BF8               	andlw	-8
  6425   00E752  1810               	xorwf	??_buzzer_initialaize^0,w,c
  6426   00E754  6E12               	movwf	buzzer_initialaize@Pin_config^0,c
  6427   00E756  C00E  FFD9         	movff	buzzer_initialaize@buzzer_obj,fsr2l
  6428   00E75A  C00F  FFDA         	movff	buzzer_initialaize@buzzer_obj+1,fsr2h
  6429   00E75E  30DF               	rrcf	223,w,c
  6430   00E760  32E8               	rrcf	wreg,f,c
  6431   00E762  32E8               	rrcf	wreg,f,c
  6432   00E764  0B07               	andlw	7
  6433   00E766  6E10               	movwf	??_buzzer_initialaize^0,c
  6434   00E768  4610               	rlncf	??_buzzer_initialaize^0,f,c
  6435   00E76A  4610               	rlncf	??_buzzer_initialaize^0,f,c
  6436   00E76C  4610               	rlncf	??_buzzer_initialaize^0,f,c
  6437   00E76E  5012               	movf	buzzer_initialaize@Pin_config^0,w,c
  6438   00E770  1810               	xorwf	??_buzzer_initialaize^0,w,c
  6439   00E772  0BC7               	andlw	-57
  6440   00E774  1810               	xorwf	??_buzzer_initialaize^0,w,c
  6441   00E776  6E12               	movwf	buzzer_initialaize@Pin_config^0,c
  6442   00E778  C00E  FFD9         	movff	buzzer_initialaize@buzzer_obj,fsr2l
  6443   00E77C  C00F  FFDA         	movff	buzzer_initialaize@buzzer_obj+1,fsr2h
  6444   00E780  ACDF               	btfss	indf2,6,c
  6445   00E782  D002               	bra	u1705
  6446   00E784  8C12               	bsf	buzzer_initialaize@Pin_config^0,6,c
  6447   00E786  D001               	bra	u1707
  6448   00E788                     u1705:
  6449   00E788  9C12               	bcf	buzzer_initialaize@Pin_config^0,6,c
  6450   00E78A                     u1707:
  6451   00E78A  9E12               	bcf	buzzer_initialaize@Pin_config^0,7,c
  6452   00E78C                     
  6453                           ;ECU_Layer/ecu_buzzer/ecu_buzzer.c: 24:         ret = gpio_pin_initialize(&Pin_config);
  6454   00E78C  0E12               	movlw	low buzzer_initialaize@Pin_config
  6455   00E78E  6E0B               	movwf	gpio_pin_initialize@Pin_config^0,c
  6456   00E790  0E00               	movlw	high buzzer_initialaize@Pin_config
  6457   00E792  6E0C               	movwf	(gpio_pin_initialize@Pin_config+1)^0,c
  6458   00E794  EC12  F071         	call	_gpio_pin_initialize	;wreg free
  6459   00E798  6E11               	movwf	buzzer_initialaize@ret^0,c
  6460   00E79A                     l3258:
  6461                           
  6462                           ;ECU_Layer/ecu_buzzer/ecu_buzzer.c: 26:     return ret;
  6463   00E79A  5011               	movf	buzzer_initialaize@ret^0,w,c
  6464   00E79C  0012               	return		;funcret
  6465   00E79E                     __end_of_buzzer_initialaize:
  6466                           	callstack 0
  6467                           
  6468 ;; *************** function _Led_initialaize *****************
  6469 ;; Defined at:
  6470 ;;		line 7 in file "ECU_Layer/ecu_led/ecu_led.c"
  6471 ;; Parameters:    Size  Location     Type
  6472 ;;  led             2   13[COMRAM] PTR const struct .
  6473 ;;		 -> red_led(1), green_led(1), 
  6474 ;; Auto vars:     Size  Location     Type
  6475 ;;  Pin_config      1   17[COMRAM] struct .
  6476 ;;  ret             1   16[COMRAM] unsigned char 
  6477 ;; Return value:  Size  Location     Type
  6478 ;;                  1    wreg      unsigned char 
  6479 ;; Registers used:
  6480 ;;		wreg, fsr2l, fsr2h, status,2, status,0, prodl, prodh, cstack
  6481 ;; Tracked objects:
  6482 ;;		On entry : 0/0
  6483 ;;		On exit  : 0/0
  6484 ;;		Unchanged: 0/0
  6485 ;; Data sizes:     COMRAM   BANK0   BANK1   BANK2   BANK3   BANK4   BANK5   BANK6   BANK7   BANK8   BANK9  BANK10  BANK1
      +1  BANK12  BANK13  BANK14  BANK15
  6486 ;;      Params:         2       0       0       0       0       0       0       0       0       0       0       0       
      +0       0       0       0       0
  6487 ;;      Locals:         2       0       0       0       0       0       0       0       0       0       0       0       
      +0       0       0       0       0
  6488 ;;      Temps:          1       0       0       0       0       0       0       0       0       0       0       0       
      +0       0       0       0       0
  6489 ;;      Totals:         5       0       0       0       0       0       0       0       0       0       0       0       
      +0       0       0       0       0
  6490 ;;Total ram usage:        5 bytes
  6491 ;; Hardware stack levels used: 1
  6492 ;; Hardware stack levels required when called: 2
  6493 ;; This function calls:
  6494 ;;		_gpio_pin_initialize
  6495 ;; This function is called by:
  6496 ;;		_ecu_layer_initialize
  6497 ;; This function uses a non-reentrant model
  6498 ;;
  6499                           
  6500                           	psect	text35
  6501   00E6A2                     __ptext35:
  6502                           	callstack 0
  6503   00E6A2                     _Led_initialaize:
  6504                           	callstack 26
  6505   00E6A2                     
  6506                           ;ECU_Layer/ecu_led/ecu_led.c: 11:     if (((void*)0) == led )
  6507   00E6A2  500E               	movf	Led_initialaize@led^0,w,c
  6508   00E6A4  100F               	iorwf	(Led_initialaize@led+1)^0,w,c
  6509   00E6A6  A4D8               	btfss	status,2,c
  6510   00E6A8  EF58  F073         	goto	u1811
  6511   00E6AC  EF5A  F073         	goto	u1810
  6512   00E6B0                     u1811:
  6513   00E6B0  EF5E  F073         	goto	l301
  6514   00E6B4                     u1810:
  6515   00E6B4                     
  6516                           ;ECU_Layer/ecu_led/ecu_led.c: 12:     {;ECU_Layer/ecu_led/ecu_led.c: 13:         ret = (
      +                          STD_ReturnType)0x00;
  6517   00E6B4  0E00               	movlw	0
  6518   00E6B6  6E11               	movwf	Led_initialaize@ret^0,c
  6519                           
  6520                           ;ECU_Layer/ecu_led/ecu_led.c: 14:     }
  6521   00E6B8  EF8E  F073         	goto	l3404
  6522   00E6BC                     l301:
  6523                           
  6524                           ;ECU_Layer/ecu_led/ecu_led.c: 16:     {;ECU_Layer/ecu_led/ecu_led.c: 17:         Pin_con
      +                          fig_t Pin_config={
  6525   00E6BC  C05A  F012         	movff	Led_initialaize@F3297,Led_initialaize@Pin_config
  6526   00E6C0  C00E  FFD9         	movff	Led_initialaize@led,fsr2l
  6527   00E6C4  C00F  FFDA         	movff	Led_initialaize@led+1,fsr2h
  6528   00E6C8  50DF               	movf	223,w,c
  6529   00E6CA  0B07               	andlw	7
  6530   00E6CC  6E10               	movwf	??_Led_initialaize^0,c
  6531   00E6CE  5012               	movf	Led_initialaize@Pin_config^0,w,c
  6532   00E6D0  1810               	xorwf	??_Led_initialaize^0,w,c
  6533   00E6D2  0BF8               	andlw	-8
  6534   00E6D4  1810               	xorwf	??_Led_initialaize^0,w,c
  6535   00E6D6  6E12               	movwf	Led_initialaize@Pin_config^0,c
  6536   00E6D8  C00E  FFD9         	movff	Led_initialaize@led,fsr2l
  6537   00E6DC  C00F  FFDA         	movff	Led_initialaize@led+1,fsr2h
  6538   00E6E0  30DF               	rrcf	223,w,c
  6539   00E6E2  32E8               	rrcf	wreg,f,c
  6540   00E6E4  32E8               	rrcf	wreg,f,c
  6541   00E6E6  0B07               	andlw	7
  6542   00E6E8  6E10               	movwf	??_Led_initialaize^0,c
  6543   00E6EA  4610               	rlncf	??_Led_initialaize^0,f,c
  6544   00E6EC  4610               	rlncf	??_Led_initialaize^0,f,c
  6545   00E6EE  4610               	rlncf	??_Led_initialaize^0,f,c
  6546   00E6F0  5012               	movf	Led_initialaize@Pin_config^0,w,c
  6547   00E6F2  1810               	xorwf	??_Led_initialaize^0,w,c
  6548   00E6F4  0BC7               	andlw	-57
  6549   00E6F6  1810               	xorwf	??_Led_initialaize^0,w,c
  6550   00E6F8  6E12               	movwf	Led_initialaize@Pin_config^0,c
  6551   00E6FA  C00E  FFD9         	movff	Led_initialaize@led,fsr2l
  6552   00E6FE  C00F  FFDA         	movff	Led_initialaize@led+1,fsr2h
  6553   00E702  ACDF               	btfss	indf2,6,c
  6554   00E704  D002               	bra	u1825
  6555   00E706  8C12               	bsf	Led_initialaize@Pin_config^0,6,c
  6556   00E708  D001               	bra	u1827
  6557   00E70A                     u1825:
  6558   00E70A  9C12               	bcf	Led_initialaize@Pin_config^0,6,c
  6559   00E70C                     u1827:
  6560   00E70C  9E12               	bcf	Led_initialaize@Pin_config^0,7,c
  6561   00E70E                     
  6562                           ;ECU_Layer/ecu_led/ecu_led.c: 23:         ret = gpio_pin_initialize(&Pin_config);
  6563   00E70E  0E12               	movlw	low Led_initialaize@Pin_config
  6564   00E710  6E0B               	movwf	gpio_pin_initialize@Pin_config^0,c
  6565   00E712  0E00               	movlw	high Led_initialaize@Pin_config
  6566   00E714  6E0C               	movwf	(gpio_pin_initialize@Pin_config+1)^0,c
  6567   00E716  EC12  F071         	call	_gpio_pin_initialize	;wreg free
  6568   00E71A  6E11               	movwf	Led_initialaize@ret^0,c
  6569   00E71C                     l3404:
  6570                           
  6571                           ;ECU_Layer/ecu_led/ecu_led.c: 25:     return ret;
  6572   00E71C  5011               	movf	Led_initialaize@ret^0,w,c
  6573   00E71E  0012               	return		;funcret
  6574   00E720                     __end_of_Led_initialaize:
  6575                           	callstack 0
  6576                           
  6577 ;; *************** function _gpio_pin_initialize *****************
  6578 ;; Defined at:
  6579 ;;		line 14 in file "MCAL_Layer/DIO/HAL_GPIO.c"
  6580 ;; Parameters:    Size  Location     Type
  6581 ;;  Pin_config      2   10[COMRAM] PTR const struct .
  6582 ;;		 -> dc_motor.dc_motor_pin(2), dc_motor(2), keypad.keypad_cols_pins(4), keypad.keypad_rows_pins(4), 
  6583 ;;		 -> keypad(8), lcd.lcd_4bit_data(4), lcd(6), Led_initialaize@Pin_config(1), 
  6584 ;;		 -> buzzer_initialaize@Pin_config(1), 
  6585 ;; Auto vars:     Size  Location     Type
  6586 ;;  ret             1   12[COMRAM] unsigned char 
  6587 ;; Return value:  Size  Location     Type
  6588 ;;                  1    wreg      unsigned char 
  6589 ;; Registers used:
  6590 ;;		wreg, fsr2l, fsr2h, status,2, status,0, prodl, prodh, cstack
  6591 ;; Tracked objects:
  6592 ;;		On entry : 0/0
  6593 ;;		On exit  : 0/0
  6594 ;;		Unchanged: 0/0
  6595 ;; Data sizes:     COMRAM   BANK0   BANK1   BANK2   BANK3   BANK4   BANK5   BANK6   BANK7   BANK8   BANK9  BANK10  BANK1
      +1  BANK12  BANK13  BANK14  BANK15
  6596 ;;      Params:         2       0       0       0       0       0       0       0       0       0       0       0       
      +0       0       0       0       0
  6597 ;;      Locals:         1       0       0       0       0       0       0       0       0       0       0       0       
      +0       0       0       0       0
  6598 ;;      Temps:          0       0       0       0       0       0       0       0       0       0       0       0       
      +0       0       0       0       0
  6599 ;;      Totals:         3       0       0       0       0       0       0       0       0       0       0       0       
      +0       0       0       0       0
  6600 ;;Total ram usage:        3 bytes
  6601 ;; Hardware stack levels used: 1
  6602 ;; Hardware stack levels required when called: 1
  6603 ;; This function calls:
  6604 ;;		_gpio_pin_direction_initialize
  6605 ;;		_gpio_pin_write_logic
  6606 ;; This function is called by:
  6607 ;;		_buzzer_initialaize
  6608 ;;		_dc_motor_intialize
  6609 ;;		_keypad_initialize
  6610 ;;		_lcd_4bit_initialize
  6611 ;;		_Led_initialaize
  6612 ;;		_lcd_8bit_initialize
  6613 ;; This function uses a non-reentrant model
  6614 ;;
  6615                           
  6616                           	psect	text36
  6617   00E224                     __ptext36:
  6618                           	callstack 0
  6619   00E224                     _gpio_pin_initialize:
  6620                           	callstack 26
  6621   00E224                     
  6622                           ;MCAL_Layer/DIO/HAL_GPIO.c: 17:     if (((void*)0) == Pin_config)
  6623   00E224  500B               	movf	gpio_pin_initialize@Pin_config^0,w,c
  6624   00E226  100C               	iorwf	(gpio_pin_initialize@Pin_config+1)^0,w,c
  6625   00E228  A4D8               	btfss	status,2,c
  6626   00E22A  EF19  F071         	goto	u1561
  6627   00E22E  EF1B  F071         	goto	u1560
  6628   00E232                     u1561:
  6629   00E232  EF1D  F071         	goto	l3088
  6630   00E236                     u1560:
  6631   00E236                     
  6632                           ;MCAL_Layer/DIO/HAL_GPIO.c: 20:     }
  6633   00E236  EF33  F071         	goto	l396
  6634   00E23A                     l3088:
  6635                           
  6636                           ;MCAL_Layer/DIO/HAL_GPIO.c: 22:     {;MCAL_Layer/DIO/HAL_GPIO.c: 23:         ret=gpio_pi
      +                          n_direction_initialize (Pin_config);
  6637   00E23A  C00B  F001         	movff	gpio_pin_initialize@Pin_config,gpio_pin_direction_initialize@Pin_config
  6638   00E23E  C00C  F002         	movff	gpio_pin_initialize@Pin_config+1,gpio_pin_direction_initialize@Pin_config+1
  6639   00E242  EC59  F079         	call	_gpio_pin_direction_initialize	;wreg free
  6640   00E246  6E0D               	movwf	gpio_pin_initialize@ret^0,c
  6641                           
  6642                           ;MCAL_Layer/DIO/HAL_GPIO.c: 24:         ret=gpio_pin_write_logic (Pin_config,Pin_config-
      +                          >Logic);
  6643   00E248  C00B  F001         	movff	gpio_pin_initialize@Pin_config,gpio_pin_write_logic@Pin_config
  6644   00E24C  C00C  F002         	movff	gpio_pin_initialize@Pin_config+1,gpio_pin_write_logic@Pin_config+1
  6645   00E250  C00B  FFD9         	movff	gpio_pin_initialize@Pin_config,fsr2l
  6646   00E254  C00C  FFDA         	movff	gpio_pin_initialize@Pin_config+1,fsr2h
  6647   00E258  0E00               	movlw	0
  6648   00E25A  BCDF               	btfsc	indf2,6,c
  6649   00E25C  0E01               	movlw	1
  6650   00E25E  6E03               	movwf	gpio_pin_write_logic@logic^0,c
  6651   00E260  EC38  F077         	call	_gpio_pin_write_logic	;wreg free
  6652   00E264  6E0D               	movwf	gpio_pin_initialize@ret^0,c
  6653   00E266                     l396:
  6654   00E266  0012               	return		;funcret
  6655   00E268                     __end_of_gpio_pin_initialize:
  6656                           	callstack 0
  6657                           
  6658 ;; *************** function _gpio_pin_write_logic *****************
  6659 ;; Defined at:
  6660 ;;		line 89 in file "MCAL_Layer/DIO/HAL_GPIO.c"
  6661 ;; Parameters:    Size  Location     Type
  6662 ;;  Pin_config      2    0[COMRAM] PTR const struct .
  6663 ;;		 -> dc_motor.dc_motor_pin(2), dc_motor(2), keypad.keypad_cols_pins(4), keypad.keypad_rows_pins(4), 
  6664 ;;		 -> keypad(8), lcd.lcd_4bit_data(4), lcd(6), Led_turn_off@Pin_config(1), 
  6665 ;;		 -> Led_turn_on@Pin_config(1), Led_initialaize@Pin_config(1), buzzer_turn_off@Pin_config(1), buzzer_turn_on@Pin_conf
      +ig(1), 
  6666 ;;		 -> buzzer_initialaize@Pin_config(1), 
  6667 ;;  logic           1    2[COMRAM] enum E3217
  6668 ;; Auto vars:     Size  Location     Type
  6669 ;;  ret             1    9[COMRAM] unsigned char 
  6670 ;; Return value:  Size  Location     Type
  6671 ;;                  1    wreg      unsigned char 
  6672 ;; Registers used:
  6673 ;;		wreg, fsr2l, fsr2h, status,2, status,0, prodl, prodh
  6674 ;; Tracked objects:
  6675 ;;		On entry : 0/0
  6676 ;;		On exit  : 0/0
  6677 ;;		Unchanged: 0/0
  6678 ;; Data sizes:     COMRAM   BANK0   BANK1   BANK2   BANK3   BANK4   BANK5   BANK6   BANK7   BANK8   BANK9  BANK10  BANK1
      +1  BANK12  BANK13  BANK14  BANK15
  6679 ;;      Params:         3       0       0       0       0       0       0       0       0       0       0       0       
      +0       0       0       0       0
  6680 ;;      Locals:         1       0       0       0       0       0       0       0       0       0       0       0       
      +0       0       0       0       0
  6681 ;;      Temps:          6       0       0       0       0       0       0       0       0       0       0       0       
      +0       0       0       0       0
  6682 ;;      Totals:        10       0       0       0       0       0       0       0       0       0       0       0       
      +0       0       0       0       0
  6683 ;;Total ram usage:       10 bytes
  6684 ;; Hardware stack levels used: 1
  6685 ;; This function calls:
  6686 ;;		Nothing
  6687 ;; This function is called by:
  6688 ;;		_buzzer_turn_on
  6689 ;;		_buzzer_turn_off
  6690 ;;		_dc_motor_rotate_right
  6691 ;;		_dc_motor_stop
  6692 ;;		_read_keypad
  6693 ;;		_lcd_4bit_send_cmd
  6694 ;;		_lcd_4bit_send_char_data_pos
  6695 ;;		_lcd_4bit_send_string_data_pos
  6696 ;;		_lcd_send_4bits
  6697 ;;		_lcd_4bit_send_enable
  6698 ;;		_Led_turn_on
  6699 ;;		_Led_turn_off
  6700 ;;		_gpio_pin_initialize
  6701 ;;		_dc_motor_rotate_left
  6702 ;;		_lcd_4bit_send_char_data
  6703 ;;		_lcd_4bit_send_string_data
  6704 ;;		_lcd_8bit_send_cmd
  6705 ;;		_lcd_8bit_send_char_data
  6706 ;;		_lcd_8bit_send_string_data
  6707 ;;		_lcd_8bit_send_char_data_pos
  6708 ;;		_lcd_8bit_send_string_data_pos
  6709 ;;		_lcd_send_8bits
  6710 ;;		_lcd_8bit_send_enable
  6711 ;; This function uses a non-reentrant model
  6712 ;;
  6713                           
  6714                           	psect	text37
  6715   00EE70                     __ptext37:
  6716                           	callstack 0
  6717   00EE70                     _gpio_pin_write_logic:
  6718                           	callstack 26
  6719   00EE70                     
  6720                           ;MCAL_Layer/DIO/HAL_GPIO.c: 89: STD_ReturnType gpio_pin_write_logic (const Pin_config_t 
      +                          *Pin_config,Logic_t logic);MCAL_Layer/DIO/HAL_GPIO.c: 90: {;MCAL_Layer/DIO/HAL_GPIO.c: 9
      +                          1:     STD_ReturnType ret = (STD_ReturnType)0x01;
  6721   00EE70  0E01               	movlw	1
  6722   00EE72  6E0A               	movwf	gpio_pin_write_logic@ret^0,c
  6723   00EE74                     
  6724                           ;MCAL_Layer/DIO/HAL_GPIO.c: 93:      if (((void*)0) == Pin_config )
  6725   00EE74  5001               	movf	gpio_pin_write_logic@Pin_config^0,w,c
  6726   00EE76  1002               	iorwf	(gpio_pin_write_logic@Pin_config+1)^0,w,c
  6727   00EE78  A4D8               	btfss	status,2,c
  6728   00EE7A  EF41  F077         	goto	u1391
  6729   00EE7E  EF43  F077         	goto	u1390
  6730   00EE82                     u1391:
  6731   00EE82  EFA6  F077         	goto	l2960
  6732   00EE86                     u1390:
  6733   00EE86                     l2952:
  6734                           
  6735                           ;MCAL_Layer/DIO/HAL_GPIO.c: 94:     {;MCAL_Layer/DIO/HAL_GPIO.c: 95:         ret = (STD_
      +                          ReturnType)0x00;
  6736   00EE86  0E00               	movlw	0
  6737   00EE88  6E0A               	movwf	gpio_pin_write_logic@ret^0,c
  6738                           
  6739                           ;MCAL_Layer/DIO/HAL_GPIO.c: 96:     }
  6740   00EE8A  EFBB  F077         	goto	l2962
  6741   00EE8E                     l2954:
  6742                           
  6743                           ;MCAL_Layer/DIO/HAL_GPIO.c: 102:                 ( *LAT_Registers[Pin_config->Port] |= (
      +                          1<<(Pin_config->Pin)) );
  6744   00EE8E  C001  FFD9         	movff	gpio_pin_write_logic@Pin_config,fsr2l
  6745   00EE92  C002  FFDA         	movff	gpio_pin_write_logic@Pin_config+1,fsr2h
  6746   00EE96  30DF               	rrcf	223,w,c
  6747   00EE98  32E8               	rrcf	wreg,f,c
  6748   00EE9A  32E8               	rrcf	wreg,f,c
  6749   00EE9C  0B07               	andlw	7
  6750   00EE9E  6E04               	movwf	??_gpio_pin_write_logic^0,c
  6751   00EEA0  0E01               	movlw	1
  6752   00EEA2  6E05               	movwf	(??_gpio_pin_write_logic+1)^0,c
  6753   00EEA4  2A04               	incf	??_gpio_pin_write_logic^0,f,c
  6754   00EEA6  EF57  F077         	goto	u1404
  6755   00EEAA                     u1405:
  6756   00EEAA  90D8               	bcf	status,0,c
  6757   00EEAC  3605               	rlcf	(??_gpio_pin_write_logic+1)^0,f,c
  6758   00EEAE                     u1404:
  6759   00EEAE  2E04               	decfsz	??_gpio_pin_write_logic^0,f,c
  6760   00EEB0  EF55  F077         	goto	u1405
  6761   00EEB4  C001  FFD9         	movff	gpio_pin_write_logic@Pin_config,fsr2l
  6762   00EEB8  C002  FFDA         	movff	gpio_pin_write_logic@Pin_config+1,fsr2h
  6763   00EEBC  50DF               	movf	223,w,c
  6764   00EEBE  0B07               	andlw	7
  6765   00EEC0  6E06               	movwf	(??_gpio_pin_write_logic+2)^0,c
  6766   00EEC2  5006               	movf	(??_gpio_pin_write_logic+2)^0,w,c
  6767   00EEC4  0D02               	mullw	2
  6768   00EEC6  0E7E               	movlw	low _LAT_Registers
  6769   00EEC8  24F3               	addwf	243,w,c
  6770   00EECA  6ED9               	movwf	fsr2l,c
  6771   00EECC  0E00               	movlw	high _LAT_Registers
  6772   00EECE  20F4               	addwfc	prodh,w,c
  6773   00EED0  6EDA               	movwf	fsr2h,c
  6774   00EED2  CFDE F007          	movff	postinc2,??_gpio_pin_write_logic+3
  6775   00EED6  CFDD F008          	movff	postdec2,??_gpio_pin_write_logic+4
  6776   00EEDA  C007  FFD9         	movff	??_gpio_pin_write_logic+3,fsr2l
  6777   00EEDE  C008  FFDA         	movff	??_gpio_pin_write_logic+4,fsr2h
  6778   00EEE2  5005               	movf	(??_gpio_pin_write_logic+1)^0,w,c
  6779   00EEE4  12DF               	iorwf	indf2,f,c
  6780                           
  6781                           ;MCAL_Layer/DIO/HAL_GPIO.c: 103:                 break;
  6782   00EEE6  EFBB  F077         	goto	l2962
  6783   00EEEA                     l2956:
  6784                           
  6785                           ;MCAL_Layer/DIO/HAL_GPIO.c: 105:                 ( *LAT_Registers[Pin_config->Port] &= ~
      +                          (1<<(Pin_config->Pin)) );
  6786   00EEEA  C001  FFD9         	movff	gpio_pin_write_logic@Pin_config,fsr2l
  6787   00EEEE  C002  FFDA         	movff	gpio_pin_write_logic@Pin_config+1,fsr2h
  6788   00EEF2  30DF               	rrcf	223,w,c
  6789   00EEF4  32E8               	rrcf	wreg,f,c
  6790   00EEF6  32E8               	rrcf	wreg,f,c
  6791   00EEF8  0B07               	andlw	7
  6792   00EEFA  6E04               	movwf	??_gpio_pin_write_logic^0,c
  6793   00EEFC  0E01               	movlw	1
  6794   00EEFE  6E05               	movwf	(??_gpio_pin_write_logic+1)^0,c
  6795   00EF00  2A04               	incf	??_gpio_pin_write_logic^0,f,c
  6796   00EF02  EF85  F077         	goto	u1414
  6797   00EF06                     u1415:
  6798   00EF06  90D8               	bcf	status,0,c
  6799   00EF08  3605               	rlcf	(??_gpio_pin_write_logic+1)^0,f,c
  6800   00EF0A                     u1414:
  6801   00EF0A  2E04               	decfsz	??_gpio_pin_write_logic^0,f,c
  6802   00EF0C  EF83  F077         	goto	u1415
  6803   00EF10  5005               	movf	(??_gpio_pin_write_logic+1)^0,w,c
  6804   00EF12  0AFF               	xorlw	255
  6805   00EF14  6E06               	movwf	(??_gpio_pin_write_logic+2)^0,c
  6806   00EF16  C001  FFD9         	movff	gpio_pin_write_logic@Pin_config,fsr2l
  6807   00EF1A  C002  FFDA         	movff	gpio_pin_write_logic@Pin_config+1,fsr2h
  6808   00EF1E  50DF               	movf	223,w,c
  6809   00EF20  0B07               	andlw	7
  6810   00EF22  6E07               	movwf	(??_gpio_pin_write_logic+3)^0,c
  6811   00EF24  5007               	movf	(??_gpio_pin_write_logic+3)^0,w,c
  6812   00EF26  0D02               	mullw	2
  6813   00EF28  0E7E               	movlw	low _LAT_Registers
  6814   00EF2A  24F3               	addwf	243,w,c
  6815   00EF2C  6ED9               	movwf	fsr2l,c
  6816   00EF2E  0E00               	movlw	high _LAT_Registers
  6817   00EF30  20F4               	addwfc	prodh,w,c
  6818   00EF32  6EDA               	movwf	fsr2h,c
  6819   00EF34  CFDE F008          	movff	postinc2,??_gpio_pin_write_logic+4
  6820   00EF38  CFDD F009          	movff	postdec2,??_gpio_pin_write_logic+5
  6821   00EF3C  C008  FFD9         	movff	??_gpio_pin_write_logic+4,fsr2l
  6822   00EF40  C009  FFDA         	movff	??_gpio_pin_write_logic+5,fsr2h
  6823   00EF44  5006               	movf	(??_gpio_pin_write_logic+2)^0,w,c
  6824   00EF46  16DF               	andwf	indf2,f,c
  6825                           
  6826                           ;MCAL_Layer/DIO/HAL_GPIO.c: 106:                 break;
  6827   00EF48  EFBB  F077         	goto	l2962
  6828   00EF4C                     l2960:
  6829   00EF4C  5003               	movf	gpio_pin_write_logic@logic^0,w,c
  6830   00EF4E  6E04               	movwf	??_gpio_pin_write_logic^0,c
  6831   00EF50  6A05               	clrf	(??_gpio_pin_write_logic+1)^0,c
  6832                           
  6833                           ; Switch on 2 bytes has been partitioned into a top level switch of size 1, and 1 sub-sw
      +                          itches
  6834                           ; Switch size 1, requested type "simple"
  6835                           ; Number of cases is 1, Range of values is 0 to 0
  6836                           ; switch strategies available:
  6837                           ; Name         Instructions Cycles
  6838                           ; simple_byte            4     3 (average)
  6839                           ;	Chosen strategy is simple_byte
  6840   00EF52  5005               	movf	(??_gpio_pin_write_logic+1)^0,w,c
  6841   00EF54  0A00               	xorlw	0	; case 0
  6842   00EF56  B4D8               	btfsc	status,2,c
  6843   00EF58  EFB0  F077         	goto	l4456
  6844   00EF5C  EF43  F077         	goto	l2952
  6845   00EF60                     l4456:
  6846                           
  6847                           ; Switch size 1, requested type "simple"
  6848                           ; Number of cases is 2, Range of values is 0 to 1
  6849                           ; switch strategies available:
  6850                           ; Name         Instructions Cycles
  6851                           ; simple_byte            7     4 (average)
  6852                           ;	Chosen strategy is simple_byte
  6853   00EF60  5004               	movf	??_gpio_pin_write_logic^0,w,c
  6854   00EF62  0A00               	xorlw	0	; case 0
  6855   00EF64  B4D8               	btfsc	status,2,c
  6856   00EF66  EF75  F077         	goto	l2956
  6857   00EF6A  0A01               	xorlw	1	; case 1
  6858   00EF6C  B4D8               	btfsc	status,2,c
  6859   00EF6E  EF47  F077         	goto	l2954
  6860   00EF72  EF43  F077         	goto	l2952
  6861   00EF76                     l2962:
  6862                           
  6863                           ;MCAL_Layer/DIO/HAL_GPIO.c: 112:     return ret;
  6864   00EF76  500A               	movf	gpio_pin_write_logic@ret^0,w,c
  6865   00EF78  0012               	return		;funcret
  6866   00EF7A                     __end_of_gpio_pin_write_logic:
  6867                           	callstack 0
  6868                           
  6869 ;; *************** function _gpio_pin_direction_initialize *****************
  6870 ;; Defined at:
  6871 ;;		line 30 in file "MCAL_Layer/DIO/HAL_GPIO.c"
  6872 ;; Parameters:    Size  Location     Type
  6873 ;;  Pin_config      2    0[COMRAM] PTR const struct .
  6874 ;;		 -> dc_motor.dc_motor_pin(2), dc_motor(2), keypad.keypad_cols_pins(4), keypad.keypad_rows_pins(4), 
  6875 ;;		 -> keypad(8), lcd.lcd_4bit_data(4), lcd(6), Led_initialaize@Pin_config(1), 
  6876 ;;		 -> buzzer_initialaize@Pin_config(1), 
  6877 ;; Auto vars:     Size  Location     Type
  6878 ;;  ret             1    8[COMRAM] unsigned char 
  6879 ;; Return value:  Size  Location     Type
  6880 ;;                  1    wreg      unsigned char 
  6881 ;; Registers used:
  6882 ;;		wreg, fsr2l, fsr2h, status,2, status,0, prodl, prodh
  6883 ;; Tracked objects:
  6884 ;;		On entry : 0/0
  6885 ;;		On exit  : 0/0
  6886 ;;		Unchanged: 0/0
  6887 ;; Data sizes:     COMRAM   BANK0   BANK1   BANK2   BANK3   BANK4   BANK5   BANK6   BANK7   BANK8   BANK9  BANK10  BANK1
      +1  BANK12  BANK13  BANK14  BANK15
  6888 ;;      Params:         2       0       0       0       0       0       0       0       0       0       0       0       
      +0       0       0       0       0
  6889 ;;      Locals:         1       0       0       0       0       0       0       0       0       0       0       0       
      +0       0       0       0       0
  6890 ;;      Temps:          6       0       0       0       0       0       0       0       0       0       0       0       
      +0       0       0       0       0
  6891 ;;      Totals:         9       0       0       0       0       0       0       0       0       0       0       0       
      +0       0       0       0       0
  6892 ;;Total ram usage:        9 bytes
  6893 ;; Hardware stack levels used: 1
  6894 ;; This function calls:
  6895 ;;		Nothing
  6896 ;; This function is called by:
  6897 ;;		_gpio_pin_initialize
  6898 ;;		_button_initialize
  6899 ;; This function uses a non-reentrant model
  6900 ;;
  6901                           
  6902                           	psect	text38
  6903   00F2B2                     __ptext38:
  6904                           	callstack 0
  6905   00F2B2                     _gpio_pin_direction_initialize:
  6906                           	callstack 26
  6907   00F2B2                     
  6908                           ;MCAL_Layer/DIO/HAL_GPIO.c: 30: STD_ReturnType gpio_pin_direction_initialize (const Pin_
      +                          config_t *Pin_config);MCAL_Layer/DIO/HAL_GPIO.c: 31: {;MCAL_Layer/DIO/HAL_GPIO.c: 32:   
      +                            STD_ReturnType ret = (STD_ReturnType)0x01;
  6909   00F2B2  0E01               	movlw	1
  6910   00F2B4  6E09               	movwf	gpio_pin_direction_initialize@ret^0,c
  6911   00F2B6                     
  6912                           ;MCAL_Layer/DIO/HAL_GPIO.c: 33:     if (((void*)0) == Pin_config)
  6913   00F2B6  5001               	movf	gpio_pin_direction_initialize@Pin_config^0,w,c
  6914   00F2B8  1002               	iorwf	(gpio_pin_direction_initialize@Pin_config+1)^0,w,c
  6915   00F2BA  A4D8               	btfss	status,2,c
  6916   00F2BC  EF62  F079         	goto	u1471
  6917   00F2C0  EF64  F079         	goto	u1470
  6918   00F2C4                     u1471:
  6919   00F2C4  EFC7  F079         	goto	l3032
  6920   00F2C8                     u1470:
  6921   00F2C8                     l3024:
  6922                           
  6923                           ;MCAL_Layer/DIO/HAL_GPIO.c: 34:     {;MCAL_Layer/DIO/HAL_GPIO.c: 35:         ret = (STD_
      +                          ReturnType)0x00;
  6924   00F2C8  0E00               	movlw	0
  6925   00F2CA  6E09               	movwf	gpio_pin_direction_initialize@ret^0,c
  6926                           
  6927                           ;MCAL_Layer/DIO/HAL_GPIO.c: 36:     }
  6928   00F2CC  EFE8  F079         	goto	l3034
  6929   00F2D0                     l3026:
  6930                           
  6931                           ;MCAL_Layer/DIO/HAL_GPIO.c: 42:                 ( *TRIS_Registers[Pin_config->Port] &= ~
      +                          (1<<(Pin_config->Pin)) );
  6932   00F2D0  C001  FFD9         	movff	gpio_pin_direction_initialize@Pin_config,fsr2l
  6933   00F2D4  C002  FFDA         	movff	gpio_pin_direction_initialize@Pin_config+1,fsr2h
  6934   00F2D8  30DF               	rrcf	223,w,c
  6935   00F2DA  32E8               	rrcf	wreg,f,c
  6936   00F2DC  32E8               	rrcf	wreg,f,c
  6937   00F2DE  0B07               	andlw	7
  6938   00F2E0  6E03               	movwf	??_gpio_pin_direction_initialize^0,c
  6939   00F2E2  0E01               	movlw	1
  6940   00F2E4  6E04               	movwf	(??_gpio_pin_direction_initialize+1)^0,c
  6941   00F2E6  2A03               	incf	??_gpio_pin_direction_initialize^0,f,c
  6942   00F2E8  EF78  F079         	goto	u1484
  6943   00F2EC                     u1485:
  6944   00F2EC  90D8               	bcf	status,0,c
  6945   00F2EE  3604               	rlcf	(??_gpio_pin_direction_initialize+1)^0,f,c
  6946   00F2F0                     u1484:
  6947   00F2F0  2E03               	decfsz	??_gpio_pin_direction_initialize^0,f,c
  6948   00F2F2  EF76  F079         	goto	u1485
  6949   00F2F6  5004               	movf	(??_gpio_pin_direction_initialize+1)^0,w,c
  6950   00F2F8  0AFF               	xorlw	255
  6951   00F2FA  6E05               	movwf	(??_gpio_pin_direction_initialize+2)^0,c
  6952   00F2FC  C001  FFD9         	movff	gpio_pin_direction_initialize@Pin_config,fsr2l
  6953   00F300  C002  FFDA         	movff	gpio_pin_direction_initialize@Pin_config+1,fsr2h
  6954   00F304  50DF               	movf	223,w,c
  6955   00F306  0B07               	andlw	7
  6956   00F308  6E06               	movwf	(??_gpio_pin_direction_initialize+3)^0,c
  6957   00F30A  5006               	movf	(??_gpio_pin_direction_initialize+3)^0,w,c
  6958   00F30C  0D02               	mullw	2
  6959   00F30E  0E74               	movlw	low _TRIS_Registers
  6960   00F310  24F3               	addwf	243,w,c
  6961   00F312  6ED9               	movwf	fsr2l,c
  6962   00F314  0E00               	movlw	high _TRIS_Registers
  6963   00F316  20F4               	addwfc	prodh,w,c
  6964   00F318  6EDA               	movwf	fsr2h,c
  6965   00F31A  CFDE F007          	movff	postinc2,??_gpio_pin_direction_initialize+4
  6966   00F31E  CFDD F008          	movff	postdec2,??_gpio_pin_direction_initialize+5
  6967   00F322  C007  FFD9         	movff	??_gpio_pin_direction_initialize+4,fsr2l
  6968   00F326  C008  FFDA         	movff	??_gpio_pin_direction_initialize+5,fsr2h
  6969   00F32A  5005               	movf	(??_gpio_pin_direction_initialize+2)^0,w,c
  6970   00F32C  16DF               	andwf	indf2,f,c
  6971                           
  6972                           ;MCAL_Layer/DIO/HAL_GPIO.c: 43:                 break;
  6973   00F32E  EFE8  F079         	goto	l3034
  6974   00F332                     l3028:
  6975                           
  6976                           ;MCAL_Layer/DIO/HAL_GPIO.c: 45:                 ( *TRIS_Registers[Pin_config->Port] |= (
      +                          1<<(Pin_config->Pin)) );
  6977   00F332  C001  FFD9         	movff	gpio_pin_direction_initialize@Pin_config,fsr2l
  6978   00F336  C002  FFDA         	movff	gpio_pin_direction_initialize@Pin_config+1,fsr2h
  6979   00F33A  30DF               	rrcf	223,w,c
  6980   00F33C  32E8               	rrcf	wreg,f,c
  6981   00F33E  32E8               	rrcf	wreg,f,c
  6982   00F340  0B07               	andlw	7
  6983   00F342  6E03               	movwf	??_gpio_pin_direction_initialize^0,c
  6984   00F344  0E01               	movlw	1
  6985   00F346  6E04               	movwf	(??_gpio_pin_direction_initialize+1)^0,c
  6986   00F348  2A03               	incf	??_gpio_pin_direction_initialize^0,f,c
  6987   00F34A  EFA9  F079         	goto	u1494
  6988   00F34E                     u1495:
  6989   00F34E  90D8               	bcf	status,0,c
  6990   00F350  3604               	rlcf	(??_gpio_pin_direction_initialize+1)^0,f,c
  6991   00F352                     u1494:
  6992   00F352  2E03               	decfsz	??_gpio_pin_direction_initialize^0,f,c
  6993   00F354  EFA7  F079         	goto	u1495
  6994   00F358  C001  FFD9         	movff	gpio_pin_direction_initialize@Pin_config,fsr2l
  6995   00F35C  C002  FFDA         	movff	gpio_pin_direction_initialize@Pin_config+1,fsr2h
  6996   00F360  50DF               	movf	223,w,c
  6997   00F362  0B07               	andlw	7
  6998   00F364  6E05               	movwf	(??_gpio_pin_direction_initialize+2)^0,c
  6999   00F366  5005               	movf	(??_gpio_pin_direction_initialize+2)^0,w,c
  7000   00F368  0D02               	mullw	2
  7001   00F36A  0E74               	movlw	low _TRIS_Registers
  7002   00F36C  24F3               	addwf	243,w,c
  7003   00F36E  6ED9               	movwf	fsr2l,c
  7004   00F370  0E00               	movlw	high _TRIS_Registers
  7005   00F372  20F4               	addwfc	prodh,w,c
  7006   00F374  6EDA               	movwf	fsr2h,c
  7007   00F376  CFDE F006          	movff	postinc2,??_gpio_pin_direction_initialize+3
  7008   00F37A  CFDD F007          	movff	postdec2,??_gpio_pin_direction_initialize+4
  7009   00F37E  C006  FFD9         	movff	??_gpio_pin_direction_initialize+3,fsr2l
  7010   00F382  C007  FFDA         	movff	??_gpio_pin_direction_initialize+4,fsr2h
  7011   00F386  5004               	movf	(??_gpio_pin_direction_initialize+1)^0,w,c
  7012   00F388  12DF               	iorwf	indf2,f,c
  7013                           
  7014                           ;MCAL_Layer/DIO/HAL_GPIO.c: 46:                 break;
  7015   00F38A  EFE8  F079         	goto	l3034
  7016   00F38E                     l3032:
  7017   00F38E  C001  FFD9         	movff	gpio_pin_direction_initialize@Pin_config,fsr2l
  7018   00F392  C002  FFDA         	movff	gpio_pin_direction_initialize@Pin_config+1,fsr2h
  7019   00F396  BEDF               	btfsc	indf2,7,c
  7020   00F398  EFD0  F079         	goto	u1501
  7021   00F39C  EFD3  F079         	goto	u1500
  7022   00F3A0                     u1501:
  7023   00F3A0  0E01               	movlw	1
  7024   00F3A2  EFD4  F079         	goto	u1510
  7025   00F3A6                     u1500:
  7026   00F3A6  0E00               	movlw	0
  7027   00F3A8                     u1510:
  7028   00F3A8  6E03               	movwf	??_gpio_pin_direction_initialize^0,c
  7029   00F3AA  6A04               	clrf	(??_gpio_pin_direction_initialize+1)^0,c
  7030                           
  7031                           ; Switch on 2 bytes has been partitioned into a top level switch of size 1, and 1 sub-sw
      +                          itches
  7032                           ; Switch size 1, requested type "simple"
  7033                           ; Number of cases is 1, Range of values is 0 to 0
  7034                           ; switch strategies available:
  7035                           ; Name         Instructions Cycles
  7036                           ; simple_byte            4     3 (average)
  7037                           ;	Chosen strategy is simple_byte
  7038   00F3AC  5004               	movf	(??_gpio_pin_direction_initialize+1)^0,w,c
  7039   00F3AE  0A00               	xorlw	0	; case 0
  7040   00F3B0  B4D8               	btfsc	status,2,c
  7041   00F3B2  EFDD  F079         	goto	l4458
  7042   00F3B6  EF64  F079         	goto	l3024
  7043   00F3BA                     l4458:
  7044                           
  7045                           ; Switch size 1, requested type "simple"
  7046                           ; Number of cases is 2, Range of values is 0 to 1
  7047                           ; switch strategies available:
  7048                           ; Name         Instructions Cycles
  7049                           ; simple_byte            7     4 (average)
  7050                           ;	Chosen strategy is simple_byte
  7051   00F3BA  5003               	movf	??_gpio_pin_direction_initialize^0,w,c
  7052   00F3BC  0A00               	xorlw	0	; case 0
  7053   00F3BE  B4D8               	btfsc	status,2,c
  7054   00F3C0  EF68  F079         	goto	l3026
  7055   00F3C4  0A01               	xorlw	1	; case 1
  7056   00F3C6  B4D8               	btfsc	status,2,c
  7057   00F3C8  EF99  F079         	goto	l3028
  7058   00F3CC  EF64  F079         	goto	l3024
  7059   00F3D0                     l3034:
  7060                           
  7061                           ;MCAL_Layer/DIO/HAL_GPIO.c: 51:     return ret;
  7062   00F3D0  5009               	movf	gpio_pin_direction_initialize@ret^0,w,c
  7063   00F3D2  0012               	return		;funcret
  7064   00F3D4                     __end_of_gpio_pin_direction_initialize:
  7065                           	callstack 0
  7066                           
  7067                           	psect	rparam
  7068   000000                     tosu	equ	0xFFF
  7069                           tosh	equ	0xFFE
  7070                           tosl	equ	0xFFD
  7071                           stkptr	equ	0xFFC
  7072                           pclatu	equ	0xFFB
  7073                           pclath	equ	0xFFA
  7074                           pcl	equ	0xFF9
  7075                           tblptru	equ	0xFF8
  7076                           tblptrh	equ	0xFF7
  7077                           tblptrl	equ	0xFF6
  7078                           tablat	equ	0xFF5
  7079                           prodh	equ	0xFF4
  7080                           prodl	equ	0xFF3
  7081                           indf0	equ	0xFEF
  7082                           postinc0	equ	0xFEE
  7083                           postdec0	equ	0xFED
  7084                           preinc0	equ	0xFEC
  7085                           plusw0	equ	0xFEB
  7086                           fsr0h	equ	0xFEA
  7087                           fsr0l	equ	0xFE9
  7088                           wreg	equ	0xFE8
  7089                           indf1	equ	0xFE7
  7090                           postinc1	equ	0xFE6
  7091                           postdec1	equ	0xFE5
  7092                           preinc1	equ	0xFE4
  7093                           plusw1	equ	0xFE3
  7094                           fsr1h	equ	0xFE2
  7095                           fsr1l	equ	0xFE1
  7096                           bsr	equ	0xFE0
  7097                           indf2	equ	0xFDF
  7098                           postinc2	equ	0xFDE
  7099                           postdec2	equ	0xFDD
  7100                           preinc2	equ	0xFDC
  7101                           plusw2	equ	0xFDB
  7102                           fsr2h	equ	0xFDA
  7103                           fsr2l	equ	0xFD9
  7104                           status	equ	0xFD8

Data Sizes:
    Strings     471
    Constant    16
    Data        81
    BSS         29
    Persistent  0
    Stack       0

Auto Spaces:
    Space          Size  Autos    Used
    COMRAM           95     72      94
    BANK0           160      0      88
    BANK1           256      0       0
    BANK2           256      0       0
    BANK3           256      0       0
    BANK4           256      0       0
    BANK5           256      0       0
    BANK6           256      0       0
    BANK7           256      0       0
    BANK8           256      0       0
    BANK9           256      0       0
    BANK10          256      0       0
    BANK11          256      0       0
    BANK12          256      0       0
    BANK13          256      0       0
    BANK14          256      0       0
    BANK15           96      0       0

Pointer List with Targets:

    vfprintf$2	PTR PTR void  size(2) Largest target is 2
		 -> sprintf@ap(COMRAM[2]), 

    vfprintf$1	PTR const unsigned char  size(2) Largest target is 4
		 -> STR_3(CODE[4]), STR_2(CODE[3]), STR_1(CODE[3]), 

    vfprintf$0	PTR struct _IO_FILE size(2) Largest target is 12
		 -> sprintf@f(COMRAM[12]), 

    strcmp@r	PTR const unsigned char  size(2) Largest target is 10
		 -> set_passowrd_frist_time@Temp_Password_2(COMRAM[10]), 

    strcmp@l	PTR const unsigned char  size(2) Largest target is 10
		 -> set_passowrd_frist_time@Temp_Password_1(COMRAM[10]), 

    S1653$source	PTR const unsigned char  size(2) Largest target is 0

    f...source	PTR const unsigned char  size(2) Largest target is 0

    S1653$buffer	PTR unsigned char  size(2) Largest target is 0

    f...buffer	PTR unsigned char  size(2) Largest target is 0

    write_the_password_in_eeprom@password	PTR unsigned char  size(2) Largest target is 10
		 -> set_passowrd_frist_time@Temp_Password_1(COMRAM[10]), set_password@Temp_Password_2(COMRAM[10]), 

    choose_program@choossed_program	PTR unsigned char  size(2) Largest target is 1
		 -> main@choossed_program(COMRAM[1]), 

    enter_your_password@_password	PTR unsigned char  size(2) Largest target is 10
		 -> set_passowrd_frist_time@Temp_Password_2(COMRAM[10]), set_password@Temp_Password_2(COMRAM[10]), set_password@Temp_Password_1(COMRAM[10]), Password(BANK0[10]), 

    password_compare_with_eeprom@compare_status	PTR unsigned char  size(2) Largest target is 1
		 -> set_password@compare_status(COMRAM[1]), open_the_safe_program@compare_status(COMRAM[1]), 

    password_compare_with_eeprom@Password	PTR unsigned char  size(2) Largest target is 10
		 -> set_password@Temp_Password_1(COMRAM[10]), Password(BANK0[10]), 

    clear_the_entered_password@_password	PTR unsigned char  size(2) Largest target is 10
		 -> Password(BANK0[10]), 

    EEPROM_READ_BYTE@data	PTR unsigned char  size(2) Largest target is 1
		 -> password_compare_with_eeprom@eeprom_elemnt(COMRAM[1]), main@frist_time_to_use_the_safe(COMRAM[1]), 

    gpio_pin_read_logic@logic	PTR enum E3217 size(2) Largest target is 1
		 -> read_keypad@pressed_but(COMRAM[1]), button_read_state@logic(COMRAM[1]), 

    gpio_pin_read_logic@Pin_config	PTR const struct . size(2) Largest target is 8
		 -> keypad.keypad_cols_pins(BANK0[4]), keypad(BANK0[8]), 

    gpio_pin_write_logic@Pin_config	PTR const struct . size(2) Largest target is 8
		 -> dc_motor.dc_motor_pin(COMRAM[2]), dc_motor(COMRAM[2]), keypad.keypad_cols_pins(BANK0[4]), keypad.keypad_rows_pins(BANK0[4]), 
		 -> keypad(BANK0[8]), lcd.lcd_4bit_data(COMRAM[4]), lcd(COMRAM[6]), Led_turn_off@Pin_config(COMRAM[1]), 
		 -> Led_turn_on@Pin_config(COMRAM[1]), Led_initialaize@Pin_config(COMRAM[1]), buzzer_turn_off@Pin_config(COMRAM[1]), buzzer_turn_on@Pin_config(COMRAM[1]), 
		 -> buzzer_initialaize@Pin_config(COMRAM[1]), 

    gpio_pin_direction_initialize@Pin_config	PTR const struct . size(2) Largest target is 8
		 -> dc_motor.dc_motor_pin(COMRAM[2]), dc_motor(COMRAM[2]), keypad.keypad_cols_pins(BANK0[4]), keypad.keypad_rows_pins(BANK0[4]), 
		 -> keypad(BANK0[8]), lcd.lcd_4bit_data(COMRAM[4]), lcd(COMRAM[6]), Led_initialaize@Pin_config(COMRAM[1]), 
		 -> buzzer_initialaize@Pin_config(COMRAM[1]), 

    gpio_pin_initialize@Pin_config	PTR const struct . size(2) Largest target is 8
		 -> dc_motor.dc_motor_pin(COMRAM[2]), dc_motor(COMRAM[2]), keypad.keypad_cols_pins(BANK0[4]), keypad.keypad_rows_pins(BANK0[4]), 
		 -> keypad(BANK0[8]), lcd.lcd_4bit_data(COMRAM[4]), lcd(COMRAM[6]), Led_initialaize@Pin_config(COMRAM[1]), 
		 -> buzzer_initialaize@Pin_config(COMRAM[1]), 

    TRIS_Registers	PTR volatile unsigned char [5] size(2) Largest target is 1
		 -> TRISE(BITBIGSFRhhhlll[1]), TRISD(BITBIGSFRhhhlll[1]), TRISC(BITBIGSFRhhhlll[1]), TRISB(BITBIGSFRhhhlll[1]), 
		 -> TRISA(BITBIGSFRhhl[1]), 

    LAT_Registers	PTR volatile unsigned char [5] size(2) Largest target is 1
		 -> LATE(BITBIGSFRhhl[1]), LATD(BITBIGSFRhhl[1]), LATC(BITBIGSFRhhl[1]), LATB(BITBIGSFRhhl[1]), 
		 -> LATA(BITBIGSFRhl[1]), 

    PORT_Registers	PTR volatile unsigned char [5] size(2) Largest target is 1
		 -> PORTE(BITBIGSFRhl[1]), PORTD(BITBIGSFRhl[1]), PORTC(BITBIGSFRhl[1]), PORTB(BITBIGSFRhl[1]), 
		 -> PORTA(BITBIGSFRl[1]), 

    Led_turn_off@led	PTR const struct . size(2) Largest target is 1
		 -> red_led(COMRAM[1]), green_led(COMRAM[1]), 

    Led_turn_on@led	PTR const struct . size(2) Largest target is 1
		 -> red_led(COMRAM[1]), green_led(COMRAM[1]), 

    Led_initialaize@led	PTR const struct . size(2) Largest target is 1
		 -> red_led(COMRAM[1]), green_led(COMRAM[1]), 

    lcd_4bit_send_enable@lcd	PTR const struct . size(2) Largest target is 6
		 -> lcd(COMRAM[6]), 

    lcd_send_4bits@lcd	PTR const struct . size(2) Largest target is 6
		 -> lcd(COMRAM[6]), 

    lcd_4bit_set_cursor@lcd	PTR const struct . size(2) Largest target is 6
		 -> lcd(COMRAM[6]), 

    sp__memset	PTR void  size(2) Largest target is 0

    lcd_4bit_send_string_data_pos@string	PTR unsigned char  size(2) Largest target is 21
		 -> STR_38(CODE[19]), STR_37(CODE[19]), STR_36(CODE[19]), STR_35(CODE[19]), 
		 -> STR_34(CODE[19]), STR_33(CODE[6]), STR_32(CODE[21]), STR_31(CODE[9]), 
		 -> STR_30(CODE[18]), STR_29(CODE[6]), STR_28(CODE[16]), STR_27(CODE[8]), 
		 -> STR_26(CODE[18]), STR_25(CODE[13]), STR_24(CODE[13]), STR_23(CODE[20]), 
		 -> STR_22(CODE[17]), STR_21(CODE[19]), STR_20(CODE[16]), STR_19(CODE[19]), 
		 -> STR_18(CODE[18]), STR_17(CODE[16]), STR_16(CODE[6]), STR_15(CODE[16]), 
		 -> STR_14(CODE[19]), STR_13(CODE[13]), STR_12(CODE[13]), STR_11(CODE[20]), 
		 -> STR_10(CODE[20]), STR_9(CODE[6]), STR_8(CODE[16]), STR_7(CODE[19]), 
		 -> STR_6(CODE[21]), STR_5(CODE[21]), STR_4(CODE[20]), 

    lcd_4bit_send_string_data_pos@lcd	PTR const struct . size(2) Largest target is 6
		 -> lcd(COMRAM[6]), 

    lcd_4bit_send_char_data_pos@lcd	PTR const struct . size(2) Largest target is 6
		 -> lcd(COMRAM[6]), 

    lcd_4bit_send_cmd@lcd	PTR const struct . size(2) Largest target is 6
		 -> lcd(COMRAM[6]), 

    lcd_4bit_initialize@lcd	PTR const struct . size(2) Largest target is 6
		 -> lcd(COMRAM[6]), 

    read_keypad@value	PTR unsigned char  size(2) Largest target is 1
		 -> enter_password_again@pressed_key_again(COMRAM[1]), set_passowrd_frist_time@pressed_key(COMRAM[1]), choose_program@pressed_button(COMRAM[1]), enter_your_password@pressed_key(COMRAM[1]), 

    read_keypad@keypad	PTR const struct . size(2) Largest target is 8
		 -> keypad(BANK0[8]), 

    keypad_initialize@keypad	PTR const struct . size(2) Largest target is 8
		 -> keypad(BANK0[8]), 

    dc_motor_stop@dc_motor	PTR const struct . size(2) Largest target is 2
		 -> dc_motor(COMRAM[2]), 

    dc_motor_rotate_right@dc_motor	PTR const struct . size(2) Largest target is 2
		 -> dc_motor(COMRAM[2]), 

    dc_motor_intialize@dc_motor	PTR const struct . size(2) Largest target is 2
		 -> dc_motor(COMRAM[2]), 

    buzzer_turn_off@buzzer_obj	PTR const struct . size(2) Largest target is 1
		 -> buzzer(COMRAM[1]), 

    buzzer_turn_on@buzzer_obj	PTR const struct . size(2) Largest target is 1
		 -> buzzer(COMRAM[1]), 

    buzzer_initialaize@buzzer_obj	PTR const struct . size(2) Largest target is 1
		 -> buzzer(COMRAM[1]), 


Critical Paths under _main in COMRAM

    _main->_change_the_password_program
    _set_passowrd_frist_time->_enter_your_password
    _open_the_safe_program->_enter_your_password
    _dc_motor_stop->_gpio_pin_write_logic
    _dc_motor_rotate_right->_gpio_pin_write_logic
    _choose_program->_lcd_4bit_send_string_data_pos
    _change_the_password_program->_set_password
    _set_password->_enter_your_password
    _write_the_password_in_eeprom->_EEPROM_WRITE_BYTE
    _try_again_after_5_sec->_lcd_4bit_send_string_data_pos
    _lcd_4bit_send_string_data_pos->_lcd_4bit_set_cursor
    _password_compare_with_eeprom->_EEPROM_READ_BYTE
    _enter_your_password->_lcd_4bit_send_char_data_pos
    _read_keypad->_gpio_pin_read_logic
    _read_keypad->_gpio_pin_write_logic
    _lcd_4bit_send_char_data_pos->_lcd_4bit_set_cursor
    _lcd_4bit_set_cursor->_lcd_4bit_send_cmd
    _clear_password_from_eeprom->_EEPROM_WRITE_BYTE
    _buzzer_turn_on->_gpio_pin_write_logic
    _buzzer_turn_off->_gpio_pin_write_logic
    _Led_turn_on->_gpio_pin_write_logic
    _Led_turn_off->_gpio_pin_write_logic
    _app_initialize->_ecu_layer_initialize
    _ecu_layer_initialize->_lcd_4bit_initialize
    _lcd_4bit_initialize->_lcd_4bit_send_cmd
    _lcd_4bit_send_cmd->_lcd_send_4bits
    _lcd_send_4bits->_gpio_pin_write_logic
    _lcd_4bit_send_enable->_gpio_pin_write_logic
    _keypad_initialize->_gpio_pin_initialize
    _dc_motor_intialize->_gpio_pin_initialize
    _buzzer_initialaize->_gpio_pin_initialize
    _Led_initialaize->_gpio_pin_initialize
    _gpio_pin_initialize->_gpio_pin_write_logic

Critical Paths under _main in BANK0

    None.

Critical Paths under _main in BANK1

    None.

Critical Paths under _main in BANK2

    None.

Critical Paths under _main in BANK3

    None.

Critical Paths under _main in BANK4

    None.

Critical Paths under _main in BANK5

    None.

Critical Paths under _main in BANK6

    None.

Critical Paths under _main in BANK7

    None.

Critical Paths under _main in BANK8

    None.

Critical Paths under _main in BANK9

    None.

Critical Paths under _main in BANK10

    None.

Critical Paths under _main in BANK11

    None.

Critical Paths under _main in BANK12

    None.

Critical Paths under _main in BANK13

    None.

Critical Paths under _main in BANK14

    None.

Critical Paths under _main in BANK15

    None.

Call Graph Tables:

 ---------------------------------------------------------------------------------
 (Depth) Function   	        Calls       Base Space   Used Autos Params    Refs
 ---------------------------------------------------------------------------------
 (0) _main                                                 5     5      0  988392
                                             68 COMRAM     4     4      0
                   _EEPROM_READ_BYTE
                        _Led_turn_on
                     _app_initialize
                     _buzzer_turn_on
        _change_the_password_program
                     _choose_program
         _clear_the_entered_password
                  _lcd_4bit_send_cmd
      _lcd_4bit_send_string_data_pos
              _open_the_safe_program
            _set_passowrd_frist_time
 ---------------------------------------------------------------------------------
 (1) _set_passowrd_frist_time                             24    24      0  260145
                                             43 COMRAM    24    24      0
                  _EEPROM_WRITE_BYTE
                       _Led_turn_off
                        _Led_turn_on
                    _buzzer_turn_off
                     _buzzer_turn_on
         _clear_password_from_eeprom
                _enter_your_password
        _lcd_4bit_send_char_data_pos
                  _lcd_4bit_send_cmd
      _lcd_4bit_send_string_data_pos
                        _read_keypad
                             _strcmp
              _try_again_after_5_sec
       _write_the_password_in_eeprom
 ---------------------------------------------------------------------------------
 (2) _strcmp                                               6     2      4     264
                                              0 COMRAM     6     2      4
 ---------------------------------------------------------------------------------
 (1) _open_the_safe_program                                4     4      0  261780
                                             43 COMRAM     4     4      0
                       _Led_turn_off
                        _Led_turn_on
                    _buzzer_turn_off
                     _buzzer_turn_on
              _dc_motor_rotate_right
                      _dc_motor_stop
                _enter_your_password
        _lcd_4bit_send_char_data_pos
                  _lcd_4bit_send_cmd
      _lcd_4bit_send_string_data_pos
       _password_compare_with_eeprom
              _try_again_after_5_sec
 ---------------------------------------------------------------------------------
 (2) _dc_motor_stop                                        3     1      2    4733
                                             10 COMRAM     3     1      2
               _gpio_pin_write_logic
 ---------------------------------------------------------------------------------
 (2) _dc_motor_rotate_right                                3     1      2    4733
                                             10 COMRAM     3     1      2
               _gpio_pin_write_logic
 ---------------------------------------------------------------------------------
 (1) _clear_the_entered_password                           4     2      2     167
                                              0 COMRAM     4     2      2
 ---------------------------------------------------------------------------------
 (1) _choose_program                                       4     2      2   77416
                                             38 COMRAM     4     2      2
                  _lcd_4bit_send_cmd
      _lcd_4bit_send_string_data_pos
                        _read_keypad
 ---------------------------------------------------------------------------------
 (1) _change_the_password_program                          1     1      0  254131
                                             67 COMRAM     1     1      0
                       _set_password
 ---------------------------------------------------------------------------------
 (2) _set_password                                        24    24      0  254107
                                             43 COMRAM    24    24      0
                       _Led_turn_off
                        _Led_turn_on
                    _buzzer_turn_off
                     _buzzer_turn_on
         _clear_password_from_eeprom
                _enter_your_password
        _lcd_4bit_send_char_data_pos
                  _lcd_4bit_send_cmd
      _lcd_4bit_send_string_data_pos
       _password_compare_with_eeprom
              _try_again_after_5_sec
       _write_the_password_in_eeprom
 ---------------------------------------------------------------------------------
 (2) _write_the_password_in_eeprom                         5     2      3    1032
                                              4 COMRAM     5     2      3
                  _EEPROM_WRITE_BYTE
 ---------------------------------------------------------------------------------
 (2) _try_again_after_5_sec                                3     3      0   71163
                                             38 COMRAM     3     3      0
                  _lcd_4bit_send_cmd
      _lcd_4bit_send_string_data_pos
 ---------------------------------------------------------------------------------
 (3) _lcd_4bit_send_string_data_pos                        8     2      6   49512
                                             30 COMRAM     8     2      6
               _gpio_pin_write_logic
               _lcd_4bit_send_enable
                _lcd_4bit_set_cursor
                     _lcd_send_4bits
 ---------------------------------------------------------------------------------
 (2) _password_compare_with_eeprom                         9     5      4     994
                                              4 COMRAM     9     5      4
                   _EEPROM_READ_BYTE
 ---------------------------------------------------------------------------------
 (3) _EEPROM_READ_BYTE                                     5     1      4     416
                                              0 COMRAM     4     0      4
 ---------------------------------------------------------------------------------
 (2) _enter_your_password                                  7     5      2   47294
                                             36 COMRAM     7     5      2
        _lcd_4bit_send_char_data_pos
                        _read_keypad
 ---------------------------------------------------------------------------------
 (2) _read_keypad                                         11     7      4    6065
                                             10 COMRAM    11     7      4
                _gpio_pin_read_logic
               _gpio_pin_write_logic
 ---------------------------------------------------------------------------------
 (3) _gpio_pin_read_logic                                 10     6      4     438
                                              0 COMRAM    10     6      4
 ---------------------------------------------------------------------------------
 (2) _lcd_4bit_send_char_data_pos                          6     1      5   40673
                                             30 COMRAM     6     1      5
               _gpio_pin_write_logic
               _lcd_4bit_send_enable
                _lcd_4bit_set_cursor
                     _lcd_send_4bits
 ---------------------------------------------------------------------------------
 (4) _lcd_4bit_set_cursor                                  7     3      4   22327
                                             23 COMRAM     7     3      4
                  _lcd_4bit_send_cmd
 ---------------------------------------------------------------------------------
 (2) _clear_password_from_eeprom                           2     2      0     638
                                              4 COMRAM     2     2      0
                  _EEPROM_WRITE_BYTE
 ---------------------------------------------------------------------------------
 (3) _EEPROM_WRITE_BYTE                                    5     2      3     569
                                              0 COMRAM     4     1      3
 ---------------------------------------------------------------------------------
 (2) _buzzer_turn_on                                       5     3      2    5165
                                             10 COMRAM     5     3      2
               _gpio_pin_write_logic
 ---------------------------------------------------------------------------------
 (2) _buzzer_turn_off                                      5     3      2    5089
                                             10 COMRAM     5     3      2
               _gpio_pin_write_logic
 ---------------------------------------------------------------------------------
 (2) _Led_turn_on                                          5     3      2    5393
                                             10 COMRAM     5     3      2
               _gpio_pin_write_logic
 ---------------------------------------------------------------------------------
 (2) _Led_turn_off                                         5     3      2    5317
                                             10 COMRAM     5     3      2
               _gpio_pin_write_logic
 ---------------------------------------------------------------------------------
 (1) _app_initialize                                       1     1      0   52493
               _ecu_layer_initialize
 ---------------------------------------------------------------------------------
 (2) _ecu_layer_initialize                                 1     1      0   52485
                                             29 COMRAM     1     1      0
                    _Led_initialaize
                 _buzzer_initialaize
                 _dc_motor_intialize
                  _keypad_initialize
                _lcd_4bit_initialize
 ---------------------------------------------------------------------------------
 (3) _lcd_4bit_initialize                                  6     4      2   27944
                                             23 COMRAM     6     4      2
                _gpio_pin_initialize
                  _lcd_4bit_send_cmd
 ---------------------------------------------------------------------------------
 (5) _lcd_4bit_send_cmd                                    4     1      3   21622
                                             19 COMRAM     4     1      3
               _gpio_pin_write_logic
               _lcd_4bit_send_enable
                     _lcd_send_4bits
 ---------------------------------------------------------------------------------
 (4) _lcd_send_4bits                                       9     6      3    6267
                                             10 COMRAM     9     6      3
               _gpio_pin_write_logic
 ---------------------------------------------------------------------------------
 (6) _lcd_4bit_send_enable                                 3     1      2    5417
                                             10 COMRAM     3     1      2
               _gpio_pin_write_logic
 ---------------------------------------------------------------------------------
 (3) _keypad_initialize                                    7     5      2    6182
                                             13 COMRAM     7     5      2
                _gpio_pin_initialize
 ---------------------------------------------------------------------------------
 (3) _dc_motor_intialize                                   3     1      2    6046
                                             13 COMRAM     3     1      2
                _gpio_pin_initialize
 ---------------------------------------------------------------------------------
 (3) _buzzer_initialaize                                   5     3      2    6104
                                             13 COMRAM     5     3      2
                _gpio_pin_initialize
 ---------------------------------------------------------------------------------
 (3) _Led_initialaize                                      5     3      2    6180
                                             13 COMRAM     5     3      2
                _gpio_pin_initialize
 ---------------------------------------------------------------------------------
 (4) _gpio_pin_initialize                                  3     1      2    5878
                                             10 COMRAM     3     1      2
      _gpio_pin_direction_initialize
               _gpio_pin_write_logic
 ---------------------------------------------------------------------------------
 (5) _gpio_pin_write_logic                                10     7      3    4565
                                              0 COMRAM    10     7      3
 ---------------------------------------------------------------------------------
 (5) _gpio_pin_direction_initialize                        9     7      2     309
                                              0 COMRAM     9     7      2
 ---------------------------------------------------------------------------------
 Estimated maximum stack depth 6
 ---------------------------------------------------------------------------------

 Call Graph Graphs:

 _main (ROOT)
   _EEPROM_READ_BYTE
   _Led_turn_on
     _gpio_pin_write_logic
   _app_initialize
     _ecu_layer_initialize
       _Led_initialaize
         _gpio_pin_initialize
           _gpio_pin_direction_initialize
           _gpio_pin_write_logic
       _buzzer_initialaize
         _gpio_pin_initialize
       _dc_motor_intialize
         _gpio_pin_initialize
       _keypad_initialize
         _gpio_pin_initialize
       _lcd_4bit_initialize
         _gpio_pin_initialize
         _lcd_4bit_send_cmd
           _gpio_pin_write_logic
           _lcd_4bit_send_enable
             _gpio_pin_write_logic
           _lcd_send_4bits
             _gpio_pin_write_logic
   _buzzer_turn_on
     _gpio_pin_write_logic
   _change_the_password_program
     _set_password
       _Led_turn_off
         _gpio_pin_write_logic
       _Led_turn_on
       _buzzer_turn_off
         _gpio_pin_write_logic
       _buzzer_turn_on
       _clear_password_from_eeprom
         _EEPROM_WRITE_BYTE
       _enter_your_password
         _lcd_4bit_send_char_data_pos
           _gpio_pin_write_logic
           _lcd_4bit_send_enable
           _lcd_4bit_set_cursor
             _lcd_4bit_send_cmd
           _lcd_send_4bits
         _read_keypad
           _gpio_pin_read_logic
           _gpio_pin_write_logic
       _lcd_4bit_send_char_data_pos
       _lcd_4bit_send_cmd
       _lcd_4bit_send_string_data_pos
         _gpio_pin_write_logic
         _lcd_4bit_send_enable
         _lcd_4bit_set_cursor
         _lcd_send_4bits
       _password_compare_with_eeprom
         _EEPROM_READ_BYTE
       _try_again_after_5_sec
         _lcd_4bit_send_cmd
         _lcd_4bit_send_string_data_pos
       _write_the_password_in_eeprom
         _EEPROM_WRITE_BYTE
   _choose_program
     _lcd_4bit_send_cmd
     _lcd_4bit_send_string_data_pos
     _read_keypad
   _clear_the_entered_password
   _lcd_4bit_send_cmd
   _lcd_4bit_send_string_data_pos
   _open_the_safe_program
     _Led_turn_off
     _Led_turn_on
     _buzzer_turn_off
     _buzzer_turn_on
     _dc_motor_rotate_right
       _gpio_pin_write_logic
     _dc_motor_stop
       _gpio_pin_write_logic
     _enter_your_password
     _lcd_4bit_send_char_data_pos
     _lcd_4bit_send_cmd
     _lcd_4bit_send_string_data_pos
     _password_compare_with_eeprom
     _try_again_after_5_sec
   _set_passowrd_frist_time
     _EEPROM_WRITE_BYTE
     _Led_turn_off
     _Led_turn_on
     _buzzer_turn_off
     _buzzer_turn_on
     _clear_password_from_eeprom
     _enter_your_password
     _lcd_4bit_send_char_data_pos
     _lcd_4bit_send_cmd
     _lcd_4bit_send_string_data_pos
     _read_keypad
     _strcmp
     _try_again_after_5_sec
     _write_the_password_in_eeprom

 Address spaces:
Name               Size   Autos  Total    Cost      Usage
BIGRAM             F5F      0       0      43        0.0%
EEDATA             400      0       0       0        0.0%
BITBANK14          100      0       0      32        0.0%
BANK14             100      0       0      33        0.0%
BITBANK13          100      0       0      30        0.0%
BANK13             100      0       0      31        0.0%
BITBANK12          100      0       0      28        0.0%
BANK12             100      0       0      29        0.0%
BITBANK11          100      0       0      26        0.0%
BANK11             100      0       0      27        0.0%
BITBANK10          100      0       0      24        0.0%
BANK10             100      0       0      25        0.0%
BITBANK9           100      0       0      22        0.0%
BANK9              100      0       0      23        0.0%
BITBANK8           100      0       0      20        0.0%
BANK8              100      0       0      21        0.0%
BITBANK7           100      0       0      18        0.0%
BANK7              100      0       0      19        0.0%
BITBANK6           100      0       0      16        0.0%
BANK6              100      0       0      17        0.0%
BITBANK5           100      0       0      14        0.0%
BANK5              100      0       0      15        0.0%
BITBANK4           100      0       0      12        0.0%
BANK4              100      0       0      13        0.0%
BITBANK3           100      0       0      10        0.0%
BANK3              100      0       0      11        0.0%
BITBANK2           100      0       0       8        0.0%
BANK2              100      0       0       9        0.0%
BITBANK1           100      0       0       6        0.0%
BANK1              100      0       0       7        0.0%
BITBANK0            A0      0       0       4        0.0%
BANK0               A0      0      58       5       55.0%
BITBANK15           60      0       0      34        0.0%
BANK15              60      0       0      35        0.0%
BITCOMRAM           5F      0       0       0        0.0%
COMRAM              5F     48      5E       1       98.9%
BITBIGSFRhhhlh      47      0       0      37        0.0%
BITBIGSFRl          20      0       0      41        0.0%
BITBIGSFRhhhlll      F      0       0      38        0.0%
BITBIGSFRhhhh        D      0       0      36        0.0%
BITBIGSFRhhl         4      0       0      39        0.0%
BITBIGSFRhl          4      0       0      40        0.0%
BIGSFR               0      0       0     200        0.0%
BITSFR               0      0       0     200        0.0%
SFR                  0      0       0     200        0.0%
STACK                0      0       0       2        0.0%
NULL                 0      0       0       0        0.0%
ABS                  0      0      B6      42        0.0%
DATA                 0      0      B6       3        0.0%
CODE                 0      0       0       0        0.0%


Microchip Technology PIC18 Macro Assembler V2.41 build 20230208172133 
Symbol Table                                                                                   Sun Sep 03 23:38:17 2023

                                       Led_turn_off@F3307 0058  
                                         ?_lcd_send_4bits 000B  
                                                      l31 E73A  
                                                      l42 E9A4  
                                                      l35 E79C  
                                                      l45 E8BC  
                                                      l38 E93E  
                                                      l70 E2F0  
                                                      l80 E336  
                                                      l65 E222  
                                                      l49 E922  
                                                      l99 E6A0  
                                         Led_toggle@F3312 0057  
                                                     l113 F2B0  
                                                     l301 E6BC  
                                                     l151 E628  
                                                     l312 E8A0  
                                                     l305 E71E  
                                           ??_Led_turn_on 000D  
                                                     l146 F19C  
                                                     l315 E7B8  
                                                     l308 E83A  
                                                     l406 F3D2  
                                                     l430 EABE  
                                                     l423 EF78  
                                                     l351 E416  
                                                     l319 E81E  
                                                     l256 ECD2  
                                                     l169 EA28  
                                                     l177 ED96  
                                                     l601 F6F2  
                                                     l275 E5B2  
                                                     l700 E470  
                                                     l604 E13A  
                                                     l287 E37E  
                                                     l631 EC1A  
                                                     l703 F088  
                                                     l481 E3BA  
                                                     l482 E3C8  
                                                     l618 F99E  
                                                     l396 E266  
                                                     l709 E178  
                                                     l645 EE6E  
                                                     l654 EB64  
                                                     l479 E3AC  
                                                     l487 E1E4  
                                                     l592 E1AA  
                                                     l586 E130  
                                                     l676 FDFE  
                                                     l668 FE02  
                                                     l677 FE14  
                               ??_set_passowrd_frist_time 002C  
                                    keypad_initialize@ret 0012  
                                         ?_buzzer_turn_on 000B  
                                                     _lcd 004B  
                                __end_of_EEPROM_READ_BYTE E1E6  
                                                     prod 0FF3  
                                                     wreg 0FE8  
                                        ??_choose_program 0029  
                                    _lcd_4bit_send_enable E338  
                                        ??_app_initialize 001F  
         password_compare_with_eeprom@wrong_password_flag 000A  
               password_compare_with_eeprom@eeprom_elemnt 000C  
                                                    l3000 E362  
                                                    l3002 E36A  
                                                    l3010 E5B4  
                                                    l3020 F2B2  
                                                    l3004 E37C  
                                                    l3012 E5C6  
                                                    l3022 F2B6  
                                                    l3014 E5CE  
                                                    l3110 F1D6  
                                                    l3024 F2C8  
                                                    l3032 F38E  
                                                    l3016 E626  
                                                    l3008 E5B4  
                                                    l3200 E392  
                                                    l3120 F222  
                                                    l3112 F1EA  
                                                    l3104 F1CE  
                                                    l1408 E53E  
                                                    l3026 F2D0  
                                                    l3034 F3D0  
                                                    l3210 E3A0  
                                                    l3202 E396  
                                                    l3050 EA5A  
                                                    l3042 EA2A  
                                                    l3130 F25C  
                                                    l3114 F1EC  
                                                    l3028 F332  
                                                    l3300 E1E6  
                                                    l3212 E3AA  
                                                    l3204 E39A  
                                                    l3060 EC2E  
                                                    l3052 EABC  
                                                    l3044 EA2E  
                                                    l3132 F28A  
                                                    l3116 F1FC  
                                                    l3140 F2AE  
                                                    l3220 E1AC  
                                                    l3302 E1F8  
                                                    l3310 E62A  
                                                    l3214 E3C6  
                                                    l3206 E39C  
                                                    l3062 EC36  
                                                    l3150 E9C0  
                                                    l3046 EA40  
                                                    l3134 F28C  
                                                    l3126 F226  
                                                    l3118 F210  
                                                    l3230 E1CE  
                                                    l3222 E1BE  
                                                    l3400 E70C  
                                                    l3304 E200  
                                                    l3312 E62A  
                                                    l3208 E39E  
                                                    l3064 EC4E  
                                                    l3072 EC96  
                                                    l3056 EC1C  
                                                    l3160 EA08  
                                                    l3152 E9C2  
                                                    l3144 E9A6  
                                                    l3048 EA52  
                                                    l3136 F29C  
                                                    l3128 F24C  
                                                    l3232 E1D0  
                                                    l3240 E1E2  
                                                    l3224 E1C2  
                                                    l3082 E224  
                                                    l3402 E70E  
                                                    l3250 E73E  
                                                    l3306 E220  
                                                    l3322 E648  
                                                    l3314 E63C  
                                                    l3410 E820  
                                                    l3066 EC66  
                                                    l3074 ECD0  
                                                    l3058 EC1C  
                                                    l3162 EA18  
                                                    l3154 E9D6  
                                                    l3146 E9A6  
                                                    l3138 F29E  
                                                    l3090 F19E  
                                                    l3234 E1D2  
                                                    l3226 E1C8  
                                                    l3218 E1AC  
                                                    l3170 ECD4  
                                                    l3084 E224  
                                                    l3404 E71C  
                                                    l3252 E778  
                                                    l3244 E720  
                                                    l3324 E658  
                                                    l3340 E69E  
                                                    l3316 E644  
                                                    l3420 E88C  
                                                    l3412 E832  
                                                    l3068 EC7E  
                                                    l3156 E9EA  
                                                    l3164 EA26  
                                                    l3148 E9B8  
                                                    l3092 F19E  
                                                    l3236 E1D4  
                                                    l3228 E1CC  
                                                    l3500 EBFE  
                                                    l3180 ED1E  
                                                    l3172 ECE6  
                                                    l3086 E236  
                                                    l3254 E78A  
                                                    l3246 E720  
                                                    l3334 E66E  
                                                    l3326 E65A  
                                                    l3350 F0A4  
                                                    l3430 E7B0  
                                                    l3414 E83E  
                                                    l3422 E89E  
                                                    l3270 E97C  
                                                    l3262 E924  
                                                    l3158 E9FC  
                                                    l3094 F1B0  
                                                    l3238 E1D6  
                                                    l3502 EC0C  
                                                    l3182 ED3E  
                                                    l3190 ED94  
                                                    l3174 ECEE  
                                                    l3510 EF7A  
                                                    l3088 E23A  
                                                    l3256 E78C  
                                                    l3248 E732  
                                                    l3336 E68C  
                                                    l3328 E66A  
                                                    l3360 F0C6  
                                                    l3352 F0A4  
                                                    l3344 F08A  
                                                    l3600 E3FA  
                                                    l3432 E7BC  
                                                    l3440 E81C  
                                                    l3416 E878  
                                                    l3408 E820  
                                                    l3280 E8A2  
                                                    l3272 E98E  
                                                    l3264 E924  
                                                    l3096 F1C2  
                                                    l3504 EC18  
                                                    l3184 ED4A  
                                                    l3176 ECF0  
                                                    l3168 ECD4  
                                                    l3520 EFEE  
                                                    l3512 EF8A  
                                                    l3258 E79A  
                                                    l3338 E68E  
                                                    l3370 F114  
                                                    l3362 F0E4  
                                                    l3354 F0B0  
                                                    l3346 F08A  
                                                    l3602 E406  
                                                    l3434 E7F6  
                                                    l3426 E79E  
                                                    l3418 E88A  
                                                    l3290 E90C  
                                                    l3282 E8A2  
                                                    l3274 E990  
                                                    l3266 E936  
                                                    l3194 E380  
                                                    l3098 F1CA  
                                                    l3450 EDB6  
                                                    l3186 ED74  
                                                    l3178 ED04  
                                                    l3530 F070  
                                                    l3522 F00A  
                                                    l3514 EFA6  
                                                    l3610 F706  
                                                    l3380 F168  
                                                    l3372 F132  
                                                    l3364 F0E6  
                                                    l3348 F09C  
                                                    l3436 E808  
                                                    l3428 E79E  
                                                    l3292 E90E  
                                                    l3284 E8B4  
                                                    l3268 E942  
                                                    l3276 E9A2  
                                                    l3196 E384  
                                                    l3540 E164  
                                                    l3460 EDFE  
                                                    l3452 EDBE  
                                                    l3444 ED98  
                                                    l3188 ED78  
                                                    l3532 F086  
                                                    l3524 F020  
                                                    l3516 EFBC  
                                                    l3508 EF7A  
                                                    l3620 F76E  
                                                    l3612 F71C  
                                                    l4340 F3E0  
                                                    l3390 E6A2  
                                                    l3382 F178  
                                                    l3374 F138  
                                                    l3366 F0F6  
                                                    l3438 E80A  
                                                    l3286 E8C0  
                                                    l3294 E920  
                                                    l3198 E38C  
                                                    l3542 E166  
                                                    l3462 EE0E  
                                                    l3454 EDC6  
                                                    l3446 ED9C  
                                                    l3526 F03C  
                                                    l3518 EFD8  
                                                    l3550 E41C  
                                                    l3630 F7D8  
                                                    l3622 F788  
                                                    l3614 F72C  
                                                    l3606 F6F4  
                                                    l4350 F42E  
                                                    l4342 F3F2  
                                                    l3392 E6A2  
                                                    l3384 F188  
                                                    l3376 F148  
                                                    l3368 F104  
                                                    l3288 E8FA  
                                                    l3544 E176  
                                                    l3536 E14C  
                                                    l3464 EE28  
                                                    l3456 EDDC  
                                                    l3472 EE5C  
                                                    l3448 EDAE  
                                                    l3480 EB6A  
                                                    l3528 F052  
                                                    l3560 E45C  
                                                    l3552 E42E  
                                                    l3640 F81A  
                                                    l3632 F7E8  
                                                    l3624 F798  
                                                    l3616 F748  
                                                    l3608 F6F4  
                                                    l3800 FAEC  
                                                    l4360 F482  
                                                    l4352 F43A  
                                                    l4344 F402  
                                                    l4336 F3D4  
                                                    l3394 E6B4  
                                                    l3298 E1E6  
                                                    l3378 F158  
                                                    l3386 F19A  
                                                    l3538 E154  
                                                    l3466 EE2A  
                                                    l3458 EDEC  
                                                    l3474 EE6C  
                                                    l3490 EBBA  
                                                    l3482 EB7C  
                                                    l3562 E46E  
                                                    l3554 E436  
                                                    l3642 F836  
                                                    l3634 F7EE  
                                                    l3650 F886  
                                                    l3626 F7B4  
                                                    l3618 F762  
                                                    l3570 E2BE  
                                                    l4450 F6DA  
                                                    l3810 FB1A  
                                                    l3802 FAF0  
                                                    l4370 F4BE  
                                                    l4362 F49E  
                                                    l4354 F452  
                                                    l4346 F40A  
                                                    l4338 F3DC  
                                                    l3396 E6C0  
                                                    l3468 EE46  
                                                    l3492 EBD8  
                                                    l3484 EB8E  
                                                    l3556 E43E  
                                                    l3548 E418  
                                                    l4452 F986  
                                                    l3660 F8B8  
                                                    l3652 F88E  
                                                    l3644 F852  
                                                    l3636 F7FE  
                                                    l3628 F7CA  
                                                    l3900 EB20  
                                                    l3572 E2C6  
                                                    l3580 E2F2  
                                                    l3820 FB74  
                                                    l3812 FB34  
                                                    l4372 F4C6  
                                                    l4364 F4AA  
                                                    l4356 F462  
                                                    l4348 F41C  
                                                    l4380 F4F8  
                                                    l2950 EE74  
                                                    l3398 E6FA  
                                                    l3590 E3CA  
                                                    l4454 ECAA  
                                                    l3494 EBDC  
                                                    l3486 EB96  
                                                    l3478 EB66  
                                                    l3558 E45A  
                                                    l3670 F93E  
                                                    l3662 F8D4  
                                                    l3654 F890  
                                                    l3646 F868  
                                                    l3638 F80A  
                                                    l3902 EB32  
                                                    l3574 E2EE  
                                                    l3566 E2AC  
                                                    l3582 E304  
                                                    l3830 FBDC  
                                                    l3822 FB84  
                                                    l3814 FB36  
                                                    l3806 FAF8  
                                                    l4358 F472  
                                                    l4456 EF60  
                                                    l2952 EE86  
                                                    l2960 EF4C  
                                                    l3592 E3CA  
                                                    l3760 E12C  
                                                    l3488 EBA6  
                                                    l3496 EBDE  
                                                    l3672 F94A  
                                                    l3664 F8F0  
                                                    l3656 F89C  
                                                    l3648 F878  
                                                    l3680 F972  
                                                    l3904 EB44  
                                                    l3568 E2AC  
                                                    l3584 E30C  
                                                    l3920 F548  
                                                    l3912 F50C  
                                                    l3840 FC2A  
                                                    l3832 FBEC  
                                                    l3824 FBA0  
                                                    l3808 FB0A  
                                                    l3816 FB52  
                                                    l4448 F4E2  
                                                    l4368 F4BA  
                                                    l4458 F3BA  
                                                    l2954 EE8E  
                                                    l2962 EF76  
                                                    l2970 E540  
                                                    l3594 E3D6  
                                                    l3498 EBEE  
                                                    l3674 F958  
                                                    l3666 F90C  
                                                    l3658 F8A8  
                                                    l3682 F99C  
                                                    l3906 EB56  
                                                    l3586 E334  
                                                    l3578 E2F2  
                                                    l3930 F5C0  
                                                    l3922 F562  
                                                    l3914 F510  
                                                    l3690 E4D4  
                                                    l3850 FC96  
                                                    l3842 FC46  
                                                    l3834 FBFC  
                                                    l3826 FBB8  
                                                    l3818 FB64  
                                                    l3770 F9BC  
                                                    l4378 F4CE  
                                                    l2956 EEEA  
                                                    l2948 EE70  
                                                    l2972 E540  
                                                    l3596 E3E2  
                                                    l3676 F968  
                                                    l3668 F924  
                                                    l3908 EB62  
                                                    l3940 F5F0  
                                                    l3932 F5CC  
                                                    l3924 F582  
                                                    l3916 F520  
                                                    l3692 E4D8  
                                                    l3860 FD28  
                                                    l3844 FC62  
                                                    l3836 FC0E  
                                                    l3852 FCA8  
                                                    l3828 FBC4  
                                                    l3780 FA00  
                                                    l3772 F9CC  
                                                    l3764 F9A0  
                                                    l2982 E562  
                                                    l2974 E552  
                                                    l3598 E3EE  
                                                    l3758 E12C  
                                                    l3950 F660  
                                                    l3942 F5FC  
                                                    l3934 F5DA  
                                                    l3926 F59E  
                                                    l3918 F53C  
                                                    l3694 E4E0  
                                                    l3870 FDA6  
                                                    l3862 FD34  
                                                    l3854 FCD6  
                                                    l3846 FC70  
                                                    l3838 FC1E  
                                                    l3790 FA82  
                                                    l3782 FA16  
                                                    l3774 F9E8  
                                                    l3766 F9A4  
                                                    l2992 E338  
                                                    l2984 E59E  
                                                    l2976 E55A  
                                                    l3960 F6BC  
                                                    l3952 F678  
                                                    l3944 F60C  
                                                    l3936 F5E2  
                                                    l3928 F5AA  
                                                    l3696 E502  
                                                    l3872 FDC2  
                                                    l3864 FD40  
                                                    l3856 FCF2  
                                                    l3848 FC86  
                                                    l3792 FA9E  
                                                    l3784 FA26  
                                                    l3776 F9F0  
                                                    l3768 F9B0  
                                          ??_Led_turn_off 000D  
                                                    l2994 E338  
                                                    l2986 E5A0  
                                                    l3890 EAC0  
                                                    l3954 F692  
                                                    l3946 F628  
                                                    l3938 F5E4  
                                                    l3698 E51A  
                                                    l3874 FDDE  
                                                    l3858 FD0E  
                                                    l3866 FD4A  
                                                    l3794 FABA  
                                                    l3786 FA38  
                                                    l3778 F9F8  
                                                    l2996 E34A  
                                                    l2988 E5B0  
                                                    l3892 EAC4  
                                                    l3956 F69E  
                                                    l3948 F644  
                                                    l3964 F6C6  
                                                    l3868 FD8A  
                                                    l3796 FAD4  
                                                    l3788 FA66  
                                                    l3884 FE02  
                                                    l2998 E352  
                                                    l3974 E132  
                                                    l3894 EAD4  
                                                    l3990 E1A8  
                                                    l3982 E17A  
                                                    l3958 F6AC  
                                                    l3966 F6F0  
                                                    l3886 FE12  
                                                    l3798 FAE0  
                                                    l3976 E132  
                                                    l3896 EAF0  
                                                    l3984 E186  
                                                    l3978 E138  
                                                    l3898 EB0C  
                                                    l3986 E196  
                                                    l3988 E198  
                                                    STR_1 FFFB  
                                                    STR_3 FFF7  
                            choose_program@pressed_button 002A  
                                                    STR_4 FE51  
                                                    STR_5 FE27  
                                                    STR_6 FE3C  
                                                    STR_7 FEB4  
                                                    STR_8 FF80  
                                                    STR_9 FFEB  
                                                    u2000 E2BE  
                                                    u2001 E2BA  
                                                    u2010 E304  
                                                    u2011 E300  
                                                    u2021 F6FE  
                                                    u2031 F710  
                                                    u2040 F7E8  
                                                    u2200 FC1E  
                                                    u2041 F7E4  
                                                    u2201 FC1A  
                                                    u2121 F9AA  
                                                    u2050 F968  
                                                    u2210 FE12  
                                                    u2051 F964  
                                                    u2211 FE0E  
                                                    u2131 F9B6  
                                                    u1500 F3A6  
                                                    u1404 EEAE  
                                                    u1420 E552  
                                                    u2220 EB32  
                                                    u2060 E502  
                                                    u2140 FA26  
                                                    u1501 F3A0  
                                                    u1405 EEAA  
                                                    u1421 E54E  
                                                    u2221 EB2E  
                                                    u2061 E4FE  
                                                    u2141 FA22  
                                                    _LATA 0F89  
                                                    u1510 F3A8  
                                                    u1414 EF0A  
                                                    u2230 EB44  
                                                    u2070 E51A  
                                                    u2150 FA38  
                                                    _LATB 0F8A  
                                                    u1415 EF06  
                                                    u2231 EB40  
                                                    u2071 E516  
                                                    u2151 FA34  
                                                    _LATC 0F8B  
                                                    u1440 E5B0  
                                                    u1520 EA40  
                                                    u1600 F25C  
                                                    u2240 F6BC  
                                                    u2160 FB0A  
                                                    _LATD 0F8C  
                                                    u1441 E5AC  
                                                    u1521 EA3C  
                                                    u1601 F258  
                                                    u2241 F6B8  
                                                    u2161 FB06  
                                                    _LATE 0F8D  
                                                    u1450 E34A  
                                                    u1434 E58C  
                                                    u1530 EA52  
                                                    u1610 F29C  
                                                    u2250 E1A8  
                                                    u2170 FB64  
                                                    u1451 E346  
                                                    u1435 E588  
                                                    u1531 EA4E  
                                                    u1611 F298  
                                                    u2251 E1A4  
                                                    u2171 FB60  
                                                    u1460 E5C6  
                                                    u1620 F2AE  
                                                    u2180 FB74  
                                                    u1461 E5C2  
                                                    u1621 F2AA  
                                                    u2181 FB70  
                                                    u1470 F2C8  
                                                    u1390 EE86  
                                                    u1710 E936  
                                                    u1550 EC2E  
                                                    u1630 E9B8  
                                                    u2190 FBEC  
                                                    u1471 F2C4  
                                                    u1391 EE82  
                                                    u1711 E932  
                                                    u1551 EC2A  
                                                    u1631 E9B4  
                                                    u2191 FBE8  
                                                    u1560 E236  
                                                    u1800 F0F6  
                                                    u1544 EAA8  
                                                    u1640 ECE6  
                                                    u1561 E232  
                                                    u1705 E788  
                                                    u1801 F0F2  
                                                    u1545 EAA4  
                                                    u1641 ECE2  
                                                    u1810 E6B4  
                                                    u1730 E8B4  
                                                    u1570 F1B0  
                                                    u1650 ED94  
                                                    u1811 E6B0  
                                                    u1707 E78A  
                                                    u1731 E8B0  
                                                    u1571 F1AC  
                                                    u1651 ED90  
                                                    u1484 F2F0  
                                                    u1660 E3BA  
                                                    u1580 F1C2  
                                                    u1900 EE58  
                                                    u1485 F2EC  
                                                    u1725 E98C  
                                                    u1661 E3B6  
                                                    u1581 F1BE  
                                                    u1901 EE54  
                                                    u1494 F352  
                                                    u1750 E1F8  
                                                    u1830 E832  
                                                    u1590 F1FC  
                                                    u1910 EE6C  
                                                    u1495 F34E  
                                                    u1751 E1F4  
                                                    u1831 E82E  
                                                    u1727 E98E  
                                                    u1591 F1F8  
                                                    u1911 EE68  
                                                    u1760 E63C  
                                                    u1680 E1BE  
                                                    u1920 EB7C  
                                                    u2640 F402  
                                                    u1825 E70A  
                                                    u1761 E638  
                                                    u1745 E90A  
                                                    u1681 E1BA  
                                                    u1921 EB78  
                                                    u2641 F3FE  
                                                    u1690 E732  
                                                    u1770 E66A  
                                                    u1850 E7B0  
                                                    u1930 EB8E  
                                                    u2650 F41C  
                                                    u1827 E70C  
                                                    u1691 E72E  
                                                    u1771 E666  
                                                    u1851 E7AC  
                                                    u1747 E90C  
                                                    u1675 E3C2  
                                                    u1931 EB8A  
                                                    u2651 F418  
                                                    u1780 E69E  
                                                    u1676 E3C4  
                                                    u1940 EBD8  
                                                    u2660 F42E  
                                                    u1781 E69A  
                                                    u1845 E888  
                                                    u1941 EBD4  
                                                    u2661 F42A  
                                                    u1790 F09C  
                                                    u1870 EDAE  
                                                    u1950 EBEE  
                                                    u2670 F462  
                                                    u1791 F098  
                                                    u1847 E88A  
                                                    u1871 EDAA  
                                                    u1951 EBEA  
                                                    u2807 F5B4  
                                                    u2671 F45E  
                                                    u1880 EDEC  
                                                    u1960 EBFE  
                                                    u2680 F472  
                                                    u1865 E806  
                                                    u1881 EDE8  
                                                    u1961 EBFA  
                                                    u2817 F682  
                                                    u2681 F46E  
                                                    u1970 E176  
                                                    u1890 EDFE  
                                                    u1867 E808  
                                                    u1971 E172  
                                                    u1891 EDFA  
                                                    u2907 F07A  
                                                    u2827 F752  
                                                    u2747 F444  
                                                    u1980 E42E  
                                                    u2917 EE34  
                                                    u1981 E42A  
                                                    u2837 F7BE  
                                                    u2757 FAC4  
                                                    u1990 E46E  
                                                    u2927 F216  
                                                    u1991 E46A  
                                                    u2847 F85C  
                                                    u2767 FB40  
                                                    u2937 F0FC  
                                                    u2857 F92E  
                                                    u2777 FBAA  
                                                    u2947 F11A  
                                                    u2867 EFB0  
                                                    u2787 FC7A  
                                                    u2957 F134  
                                                    u2877 EFE2  
                                                    u2797 FD18  
                                                    u2967 E364  
                                                    u2887 F014  
                                                    u2897 F046  
                                        ?_buzzer_turn_off 000B  
                    __end_of_password_compare_with_eeprom EC1C  
                            _password_compare_with_eeprom EB66  
                                                    _main F3D4  
                                                    fsr1h 0FE2  
                                                    fsr2h 0FDA  
                                                    indf2 0FDF  
                                                    fsr1l 0FE1  
                                                    fsr2l 0FD9  
                                                    prodl 0FF3  
                                open_the_safe_program@ret 002F  
                                                    start 0000  
                          change_the_password_program@ret 0044  
                           keypad_initialize@cols_counter 0014  
                                            ___param_bank 0000  
                                    _gpio_pin_write_logic EE70  
                                       ??_Led_initialaize 0010  
                                                   ?_main 0001  
                                                   _EEADR 0FA9  
                                                   STR_10 FE79  
                                                   STR_11 FE8D  
                                                   STR_12 FFC0  
                                                   STR_20 FFA0  
                                                   STR_13 FFCD  
                                                   STR_21 FF26  
                                                   STR_14 FEB4  
                                                   STR_22 FF6F  
                                                   STR_30 FF39  
                                                   STR_15 FF80  
                                                   STR_31 FFDA  
                                                   STR_23 FE65  
                                                   STR_16 FFEB  
                                                   STR_24 FFC0  
                                                   STR_25 FFCD  
                                                   STR_17 FF90  
                                                   STR_26 FF5D  
                                                   STR_18 FF4B  
                                                   STR_34 FF13  
                                                   STR_27 FFE3  
                                                   STR_35 FF00  
                                                   STR_19 FEA1  
                                                   STR_28 FFB0  
                                                   STR_36 FEED  
                                                   STR_29 FFF1  
                                                   STR_37 FEDA  
                                                   STR_38 FEC7  
                                                   _PORTA 0F80  
                                                   _PORTB 0F81  
                                                   _PORTC 0F82  
                                                   _PORTD 0F83  
                                                   _PORTE 0F84  
                                                   _TRISA 0F92  
                                                   _TRISB 0F93  
                                                   _TRISC 0F94  
                                                   _TRISD 0F95  
                                                   _TRISE 0F96  
                                   ?_lcd_4bit_send_enable 000B  
                           ?_write_the_password_in_eeprom 0005  
                               buzzer_turn_off@Pin_config 000F  
                            buzzer_initialaize@buzzer_obj 000E  
                                            ?_read_keypad 000B  
                        lcd_4bit_initialize@l_pin_counter 001C  
                                     __end_of_Led_turn_on E8A2  
                                                   tablat 0FF5  
                                                   plusw1 0FE3  
                                                   plusw2 0FDB  
                                   dc_motor_intialize@ret 0010  
                                 lcd_4bit_send_enable@lcd 000B  
                   __end_of_lcd_4bit_send_string_data_pos ED98  
                           _lcd_4bit_send_string_data_pos ECD4  
                                 lcd_4bit_send_enable@ret 000D  
                                                   status 0FD8  
                         __end_of_set_passowrd_frist_time FE16  
                                          _TRIS_Registers 0074  
                                buzzer_turn_on@Pin_config 000F  
                           ?_password_compare_with_eeprom 0005  
                                          Led_turn_on@led 000B  
                                      _buzzer_initialaize E720  
                                          Led_turn_on@ret 000E  
                          ?_gpio_pin_direction_initialize 0001  
                                         __initialization E472  
                                            __end_of_main F50C  
                                   ?_gpio_pin_write_logic 0001  
                                     ?_buzzer_initialaize 000E  
                          enter_your_password@pressed_key 002B  
                                gpio_pin_read_logic@logic 0003  
                                                  ??_main 0045  
                           __end_of_open_the_safe_program F6F4  
                                           __activetblptr 0002  
                                         set_password@ret 0043  
                                 ecu_layer_initialize@ret 001E  
                                                  _EEADRH 0FAA  
                                                  _EEDATA 0FA8  
                                                  _EECON2 0FA7  
                                    ??_buzzer_initialaize 0010  
                                                  _INTCON 0FF2  
                                      buzzer_toggle@F3312 005B  
                                   buzzer_initialaize@ret 0011  
                                 keypad_initialize@keypad 000E  
                           clear_the_entered_password@ret 0003  
                            enter_your_password@_password 0025  
                                 ??_try_again_after_5_sec 0027  
                                    __end_of_Led_turn_off E820  
                                                  _keypad 009C  
                                                  _buzzer 0053  
                                                  clear_0 E4B8  
                                                  clear_1 E4C4  
                                                  isa$std 0001  
                                                  _strcmp E4D4  
                                           _LAT_Registers 007E  
                                   Led_turn_on@Pin_config 000F  
                                             _Led_turn_on E820  
                                            __pdataCOMRAM 0049  
                                  ??_lcd_4bit_send_enable 000D  
                                            __mediumconst FE16  
                                                  tblptrh 0FF7  
                                                  tblptrl 0FF6  
                                                  tblptru 0FF8  
                      __end_of_clear_the_entered_password E1AC  
                              _clear_the_entered_password E17A  
                            ?_change_the_password_program 0001  
                          ??_write_the_password_in_eeprom 0008  
                                              __accesstop 0060  
                                 __end_of__initialization E4CA  
                                         Led_turn_off@led 000B  
                                     _enter_your_password ED98  
                                         Led_turn_off@ret 000E  
                                           ___rparam_used 0001  
                                        ??_lcd_send_4bits 000E  
                             set_password@Temp_Password_1 002E  
                             set_password@Temp_Password_2 0038  
                          ?_lcd_4bit_send_string_data_pos 001F  
                                  ??_gpio_pin_write_logic 0004  
                                          __pcstackCOMRAM 0001  
                                            __pidataBANK0 E268  
                          ??_password_compare_with_eeprom 0009  
                                        ??_buzzer_turn_on 000D  
                                    ?_enter_your_password 0025  
                                       ?_EEPROM_READ_BYTE 0001  
                            set_passowrd_frist_time@F3533 00AE  
                            set_passowrd_frist_time@F3535 00A4  
                                   _dc_motor_rotate_right E2AC  
                            ?_lcd_4bit_send_char_data_pos 001F  
                                      ??_EEPROM_READ_BYTE 0005  
                                              __pbssBANK0 00A4  
                     open_the_safe_program@compare_status 002E  
                                    Led_initialaize@F3297 005A  
                                         _Led_initialaize E6A2  
                         password_compare_with_eeprom@ret 000B  
                                 _wrong_attempts_set_pass 0049  
                                   ??_enter_your_password 0027  
                                                 ?_strcmp 0001  
                               read_keypad@l_rows_counter 0013  
                               Led_initialaize@Pin_config 0012  
                               buzzer_turn_off@buzzer_obj 000B  
                                try_again_after_5_sec@ret 0029  
                                buzzer_turn_on@buzzer_obj 000B  
                                       read_keypad@keypad 000B  
                          gpio_pin_write_logic@Pin_config 0001  
                                  read_keypad@pressed_but 0012  
                     lcd_4bit_send_string_data_pos@string 0021  
                                                 __Hparam 0000  
                                                 __Lparam 0000  
                                  enter_your_password@ret 0029  
                                     _gpio_pin_initialize E224  
                                     _gpio_pin_read_logic EA2A  
                                           ?_set_password 0001  
                                ?_set_passowrd_frist_time 0001  
                                                 __pcinit E472  
                                                 __ramtop 1000  
                                                 __ptext0 F3D4  
                                                 __ptext1 F9A0  
                                                 __ptext2 E4D4  
                                                 __ptext3 F50C  
                                                 __ptext4 E2F2  
                                                 __ptext5 E2AC  
                                                 __ptext6 E17A  
                                                 __ptext7 EAC0  
                                                 __ptext8 E132  
                                                 __ptext9 F6F4  
                         ??_gpio_pin_direction_initialize 0003  
                                                 _red_led 0054  
                                      buzzer_turn_off@ret 000E  
                                  ?_dc_motor_rotate_right 000B  
                                    ?_gpio_pin_initialize 000B  
                                    ?_gpio_pin_read_logic 0001  
                                 __end_of_Led_initialaize E720  
                                    end_of_initialization E4CA  
                                       lcd_send_4bits@lcd 000B  
                                       lcd_send_4bits@ret 0012  
                                            _Led_turn_off E79E  
                            ??_clear_the_entered_password 0003  
                                           __Lmediumconst FE16  
                  set_passowrd_frist_time@Temp_Password_1 0038  
                  set_passowrd_frist_time@Temp_Password_2 002E  
                      __end_of_clear_password_from_eeprom E17A  
                              _clear_password_from_eeprom E14A  
                                           _dc_motor_stop E2F2  
                                                 postdec1 0FE5  
                                                 postdec2 0FDD  
                                                 postinc0 0FEE  
                                                 postinc1 0FE6  
                                                 postinc2 0FDE  
                                          ??_set_password 002C  
                         write_the_password_in_eeprom@ret 0008  
             write_the_password_in_eeprom@password_length 0007  
                                                 strcmp@l 0001  
                                                 strcmp@r 0003  
                                     _lcd_4bit_initialize F08A  
                           __end_of_try_again_after_5_sec F08A  
                 gpio_pin_direction_initialize@Pin_config 0001  
                                            ?_Led_turn_on 000B  
                                        Led_turn_on@F3302 0059  
                                   _open_the_safe_program F50C  
                                   ??_gpio_pin_initialize 000D  
                                   ??_gpio_pin_read_logic 0005  
                             ?_clear_the_entered_password 0001  
                              dc_motor_intialize@dc_motor 000E  
                         lcd_4bit_send_char_data_pos@data 0021  
                                    ?_lcd_4bit_initialize 0018  
                     clear_the_entered_password@_password 0001  
                                          ?_dc_motor_stop 000B  
                                 _password_digits_counter 0056  
                          choose_program@choossed_program 0027  
                                     _lcd_4bit_set_cursor EC1C  
                                           __pidataCOMRAM E13D  
                                       ??_buzzer_turn_off 000D  
                                          __end_of_strcmp E540  
                                     start_initialization E472  
                                    ?_lcd_4bit_set_cursor 0018  
                   __end_of_gpio_pin_direction_initialize F3D4  
                           _gpio_pin_direction_initialize F2B2  
                                        ?_Led_initialaize 000E  
                                   ??_lcd_4bit_initialize 001A  
                              __end_of_dc_motor_intialize E224  
                      set_passowrd_frist_time@pressed_key 0042  
                                             __pdataBANK0 0060  
                            __end_of_ecu_layer_initialize E418  
                    __end_of_write_the_password_in_eeprom E472  
                            _write_the_password_in_eeprom E418  
                                        dc_motor_stop@ret 000D  
                                                ??_strcmp 0005  
                                  ?_open_the_safe_program 0001  
                                       set_password@F3511 0060  
                                       set_password@F3509 006A  
                                             __pbssCOMRAM 0056  
                                   ??_lcd_4bit_set_cursor 001C  
                                    lcd_4bit_send_cmd@cmd 0016  
                                           ??_read_keypad 000F  
                                    lcd_4bit_send_cmd@lcd 0014  
                          main@frist_time_to_use_the_safe 0047  
                                    lcd_4bit_send_cmd@ret 0017  
                           dc_motor_rotate_right@dc_motor 000B  
                                    __end_of_set_password F9A0  
                                          _choose_program EAC0  
                                         ??_dc_motor_stop 000D  
                                          _app_initialize E12C  
                           keypad_initialize@rows_counter 0013  
                                    main@choossed_program 0048  
                       EEPROM_WRITE_BYTE@interrupt_status 0004  
                                           __pmediumconst FE16  
                             __end_of_enter_your_password EE70  
                            ??_clear_password_from_eeprom 0005  
                               gpio_pin_write_logic@logic 0003  
                              set_passowrd_frist_time@ret 0043  
                                    buzzer_turn_off@F3307 005C  
                                 ??_dc_motor_rotate_right 000D  
                                        read_keypad@value 000D  
                                               _green_led 0055  
                     __end_of_change_the_password_program E13C  
                             _change_the_password_program E132  
                                          _PORT_Registers 0088  
                                  Led_turn_off@Pin_config 000F  
                                  __end_of_choose_program EB66  
                                       _EEPROM_WRITE_BYTE E380  
                                       buzzer_turn_on@ret 000E  
                    password_compare_with_eeprom@Password 0005  
                                  __end_of_app_initialize E132  
                                     __end_of_read_keypad F2B2  
                           ??_change_the_password_program 0044  
                                      ?_EEPROM_WRITE_BYTE 0001  
                                          _keypad_buttons FE17  
                             ?_clear_password_from_eeprom 0001  
                                     ??_EEPROM_WRITE_BYTE 0004  
                        gpio_pin_direction_initialize@ret 0009  
                           gpio_pin_initialize@Pin_config 000B  
                               read_keypad@l_cols_counter 0015  
                           clear_password_from_eeprom@ret 0005  
                          lcd_4bit_send_char_data_pos@col 0023  
                          lcd_4bit_send_char_data_pos@lcd 001F  
                          lcd_4bit_send_char_data_pos@ret 0024  
                          lcd_4bit_send_char_data_pos@row 0022  
                                  gpio_pin_initialize@ret 000D  
                                       choose_program@ret 0029  
                     __end_of_lcd_4bit_send_char_data_pos EA2A  
                             _lcd_4bit_send_char_data_pos E9A6  
                               __end_of_EEPROM_WRITE_BYTE E3CA  
                                 buzzer_initialaize@F3297 005E  
                                 gpio_pin_write_logic@ret 000A  
                                               copy_data0 E486  
                                               copy_data1 E4A6  
                                     lcd_send_4bits@value 000D  
                                       _keypad_initialize E62A  
                                         ?_choose_program 0027  
                                  __end_of_keypad_buttons FE27  
                                         ?_app_initialize 0001  
                                      ?_keypad_initialize 000E  
                                  gpio_pin_read_logic@ret 000A  
                                    _ecu_layer_initialize E3CA  
                           ??_lcd_4bit_send_char_data_pos 0024  
                                              _EECON1bits 0FA6  
                                        _EEPROM_READ_BYTE E1AC  
                                                _Password 0092  
                                                __Hrparam 0000  
                        lcd_4bit_send_string_data_pos@col 0024  
                        lcd_4bit_send_string_data_pos@lcd 001F  
                        lcd_4bit_send_string_data_pos@ret 0026  
                        lcd_4bit_send_string_data_pos@row 0023  
                                         _buzzer_turn_off E8A2  
                                                __Lrparam 0000  
                                     ??_keypad_initialize 0010  
                                   dc_motor_stop@dc_motor 000B  
                                  lcd_4bit_set_cursor@col 001B  
                                  lcd_4bit_set_cursor@lcd 0018  
                                  lcd_4bit_set_cursor@ret 001E  
                                  lcd_4bit_set_cursor@row 001A  
                             __end_of_gpio_pin_initialize E268  
                             __end_of_gpio_pin_read_logic EAC0  
                                                _dc_motor 0051  
                                   _try_again_after_5_sec EF7A  
                                     buzzer_turn_on@F3302 005D  
                                      Led_initialaize@led 000E  
                              __end_of_buzzer_initialaize E79E  
                                      Led_initialaize@ret 0011  
                                             _read_keypad F19E  
                               __end_of_keypad_initialize E6A2  
                                                __ptext10 E418  
                                                __ptext11 EF7A  
                                                __ptext20 E14A  
                                                __ptext12 ECD4  
                                                __ptext21 E380  
                                                __ptext13 EB66  
                                                __ptext30 E540  
                                                __ptext22 E924  
                                                __ptext14 E1AC  
                                                __ptext31 E338  
                                                __ptext23 E8A2  
                                                __ptext15 ED98  
                                                __ptext32 E62A  
                                                __ptext24 E820  
                                                __ptext16 F19E  
                                                __ptext33 E1E6  
                                                __ptext25 E79E  
                                                __ptext17 EA2A  
                                                __ptext34 E720  
                                                __ptext26 E12C  
                                                __ptext18 E9A6  
                                                __ptext35 E6A2  
                                                __ptext27 E3CA  
                                                __ptext19 EC1C  
                                                __ptext36 E224  
                                                __ptext28 F08A  
                                                __ptext37 EE70  
                                                __ptext29 E5B4  
                                                __ptext38 F2B2  
                            buzzer_initialaize@Pin_config 0012  
         enter_your_password@temp_password_digits_counter 002A  
  clear_the_entered_password@temp_password_digits_counter 0004  
                    write_the_password_in_eeprom@password 0005  
                                   ?_ecu_layer_initialize 0001  
              password_compare_with_eeprom@compare_status 0007  
                            __end_of_lcd_4bit_send_enable E380  
                           gpio_pin_read_logic@Pin_config 0001  
                                                isa$xinst 0000  
                                      _dc_motor_intialize E1E6  
                                       _lcd_4bit_send_cmd E5B4  
                                 ??_open_the_safe_program 002C  
                                            _set_password F6F4  
                                          _lcd_send_4bits E540  
                                      ?_lcd_4bit_send_cmd 0014  
                                     ?_dc_motor_intialize 000E  
                                              _INTCONbits 0FF2  
                             __end_of_lcd_4bit_initialize F19E  
                                          _buzzer_turn_on E924  
                                 _set_passowrd_frist_time F9A0  
                                          _wrong_attempts 004A  
                                     ??_lcd_4bit_send_cmd 0017  
                            __end_of_gpio_pin_write_logic EF7A  
                                   EEPROM_WRITE_BYTE@bAdd 0001  
                                   EEPROM_WRITE_BYTE@data 0003  
                                 __end_of_buzzer_turn_off E924  
                                 read_keypad@rows_counter 0014  
                                    ??_dc_motor_intialize 0010  
password_compare_with_eeprom@temp_password_digits_counter 000D  
write_the_password_in_eeprom@temp_password_digits_counter 0009  
  clear_password_from_eeprom@temp_password_digits_counter 0006  
                                          read_keypad@ret 0011  
                               __end_of_lcd_4bit_send_cmd E62A  
                                  __end_of_lcd_send_4bits E5B4  
                             __end_of_lcd_4bit_set_cursor ECD4  
                                  ?_try_again_after_5_sec 0001  
                                  __end_of_buzzer_turn_on E9A6  
                           __end_of_dc_motor_rotate_right E2F2  
                             lcd_send_4bits@l_pin_counter 0013  
                         ??_lcd_4bit_send_string_data_pos 0025  
                                  ??_ecu_layer_initialize 001E  
                                           ?_Led_turn_off 000B  
                              set_password@compare_status 0042  
                                    EEPROM_READ_BYTE@bAdd 0001  
                                    EEPROM_READ_BYTE@data 0003  
                                   __end_of_dc_motor_stop E338  
                                  lcd_4bit_initialize@lcd 0018  
                                  lcd_4bit_initialize@ret 001D  
                                dc_motor_rotate_right@ret 000D  
